Certificate:
    Data:
        Version: 3 (0x2)
        Serial Number: 4100 (0x1004)
    Signature Algorithm: sha256WithRSAEncryption
        Issuer: C=US, ST=New York, L=Brooklyn, O=Timber.io, CN=Timber.io Vector Test CA
        Validity
            Not Before: Jun  6 18:29:08 2022 GMT
            Not After : Jun  3 18:29:08 2032 GMT
        Subject: C=US, ST=New York, L=Brooklyn, O=Timber.io, OU=TLS Tests, CN=test client
        Subject Public Key Info:
            Public Key Algorithm: rsaEncryption
                Public-Key: (2048 bit)
                Modulus:
                    00:f8:d0:a0:e6:58:da:15:bd:66:4d:dd:28:5b:47:
                    be:30:92:cb:f5:4d:17:b4:07:9a:54:be:2e:d6:20:
                    1d:c7:d9:1e:30:fb:ed:0e:17:34:41:f7:1a:6d:01:
                    72:0b:86:78:71:bb:cb:7f:97:d9:1d:12:36:f2:e2:
                    e1:a0:87:75:ff:2c:42:6e:f0:dd:fd:7c:41:ea:fc:
                    59:13:3d:4c:c7:50:ac:b2:42:f1:9f:d3:85:23:36:
                    f7:96:86:b6:4e:4b:fa:9c:1b:69:0d:13:73:ec:b9:
                    67:6b:51:08:bf:da:b7:cb:7d:80:b4:64:30:35:71:
                    17:70:d3:3d:d9:0c:82:b3:be:c1:8c:2c:bf:e0:7e:
                    3b:ec:f5:5b:33:29:27:8f:6f:36:8e:55:24:8d:b6:
                    bd:9f:80:37:06:10:84:26:1e:6d:93:45:b7:25:7b:
                    32:28:ed:4e:27:76:b6:bf:93:78:3c:b1:db:8f:a0:
                    41:d2:e5:78:ba:d3:a2:4d:da:d7:1f:a7:93:b6:f1:
                    d3:ff:f1:05:e5:84:89:b8:57:d8:f6:39:c8:9e:a1:
                    da:82:30:dc:78:fd:27:d8:70:73:32:29:20:34:5d:
                    8c:f7:82:d0:c0:36:38:a8:cb:ee:72:14:d9:c9:e6:
                    b6:68:ec:19:28:aa:05:4b:28:7d:ed:31:6f:40:ae:
                    06:e9
                Exponent: 65537 (0x10001)
        X509v3 extensions:
            X509v3 Basic Constraints: 
                CA:FALSE
            Netscape Cert Type: 
                SSL Client, S/MIME
            Netscape Comment: 
                OpenSSL Generated Client Certificate
            X509v3 Subject Key Identifier: 
                10:44:84:AC:83:4A:C9:FB:FF:43:35:CA:92:21:9F:03:89:70:62:6A
            X509v3 Authority Key Identifier: 
                keyid:27:8E:9B:21:F1:16:D6:37:9D:7B:E0:DE:01:B6:72:1A:43:69:84:7B

            X509v3 Key Usage: critical
                Digital Signature, Non Repudiation, Key Encipherment
            X509v3 Extended Key Usage: 
                TLS Web Client Authentication, E-mail Protection
    Signature Algorithm: sha256WithRSAEncryption
         43:c9:c4:3c:d8:6c:52:8a:53:76:fe:2d:47:d3:53:9b:44:9f:
         b8:31:c0:91:37:dd:40:e8:e3:b2:75:12:a5:f1:3a:90:28:37:
         ac:8f:9e:18:8e:74:17:aa:5c:35:3e:7b:dd:e2:59:b5:46:d0:
         0a:8c:bc:3d:fc:fa:ab:6e:40:c1:45:ea:0e:69:71:54:ba:d8:
         6d:b2:c5:ef:0b:13:d1:dc:dc:1b:0b:61:46:ea:e0:5e:04:9c:
         80:49:6a:2d:26:af:91:b4:18:33:2a:81:6a:39:62:bf:4d:63:
         c7:de:48:e7:a7:dd:55:77:f8:d0:fb:7e:f7:08:35:0a:65:4b:
         71:a2:e2:79:eb:b3:ea:f7:2c:16:98:9e:6d:35:53:65:f1:4c:
         80:03:15:ee:d6:4f:5f:ee:c8:3e:8d:0e:b8:90:f4:32:60:a4:
         6e:ee:00:3f:d5:38:72:ae:06:58:e3:0a:d1:e4:d2:42:92:33:
         b5:8f:55:6c:8d:66:92:89:0f:4e:99:fe:88:fc:92:83:49:61:
         ed:58:20:5f:35:2d:ae:78:bc:ef:ef:18:20:6c:49:b3:46:d4:
         f2:9e:f2:76:d4:8e:f2:50:6d:9f:88:3e:65:86:90:8b:07:36:
         91:72:73:89:f5:ce:91:27:4e:b1:c4:b7:08:5e:ee:cc:dd:41:
         d8:14:04:12:fb:f9:97:86:1b:d3:43:8e:ae:e7:e8:7c:2a:7a:
         56:3e:59:93:fe:35:2e:1c:c7:17:fc:06:07:4d:bd:53:da:e0:
         55:d1:10:21:30:d5:8f:b5:c7:42:8a:b2:5b:bc:29:96:c1:78:
         dd:75:30:06:dd:fe:fa:20:59:29:68:c2:22:54:1d:16:2d:09:
         88:27:ad:a0:b4:69:7d:8e:38:5f:e8:70:c3:dd:0e:4e:4c:17:
         89:24:17:f7:49:ee:25:0c:d3:c7:80:af:3f:0b:04:70:bd:de:
         0d:88:80:7c:2f:e0:7b:71:91:99:c7:70:c2:20:8e:50:f6:c1:
         c3:79:cf:e6:0d:c4:3d:3b:6b:db:82:4c:4a:0d:a3:a0:07:b9:
         bf:bf:ad:4f:19:5b:ca:6a:e5:52:e4:b5:e5:97:e3:96:74:3b:
         c7:92:1b:c0:d2:41:aa:ba:91:e7:3d:15:ba:02:1e:fd:67:64:
         a4:9f:f6:ba:e3:3a:1c:f8:dc:e6:8a:32:f1:79:b5:79:f5:3e:
         00:a6:f7:2d:fd:7f:1a:5d:68:e2:fe:c0:fc:f8:bc:8a:14:58:
         f5:97:8d:0b:f1:54:ea:23:d3:0d:8e:0d:ad:75:3a:e6:2a:db:
         47:49:63:ab:62:1b:4d:97:ec:f3:b6:f6:7d:7d:31:90:24:43:
         f8:7a:a2:c5:e8:95:55:a3
-----BEGIN CERTIFICATE-----
MIIFHTCCAwWgAwIBAgICEAQwDQYJKoZIhvcNAQELBQAwajELMAkGA1UEBhMCVVMx
ETAPBgNVBAgMCE5ldyBZb3JrMREwDwYDVQQHDAhCcm9va2x5bjESMBAGA1UECgwJ
VGltYmVyLmlvMSEwHwYDVQQDDBhUaW1iZXIuaW8gVmVjdG9yIFRlc3QgQ0EwHhcN
MjIwNjA2MTgyOTA4WhcNMzIwNjAzMTgyOTA4WjBxMQswCQYDVQQGEwJVUzERMA8G
A1UECAwITmV3IFlvcmsxETAPBgNVBAcMCEJyb29rbHluMRIwEAYDVQQKDAlUaW1i
ZXIuaW8xEjAQBgNVBAsMCVRMUyBUZXN0czEUMBIGA1UEAwwLdGVzdCBjbGllbnQw
ggEiMA0GCSqGSIb3DQEBAQUAA4IBDwAwggEKAoIBAQD40KDmWNoVvWZN3ShbR74w
ksv1TRe0B5pUvi7WIB3H2R4w++0OFzRB9xptAXILhnhxu8t/l9kdEjby4uGgh3X/
LEJu8N39fEHq/FkTPUzHUKyyQvGf04UjNveWhrZOS/qcG2kNE3PsuWdrUQi/2rfL
fYC0ZDA1cRdw0z3ZDIKzvsGMLL/gfjvs9VszKSePbzaOVSSNtr2fgDcGEIQmHm2T
RbclezIo7U4ndra/k3g8sduPoEHS5Xi606JN2tcfp5O28dP/8QXlhIm4V9j2Ocie
odqCMNx4/SfYcHMyKSA0XYz3gtDANjioy+5yFNnJ5rZo7BkoqgVLKH3tMW9Argbp
AgMBAAGjgcUwgcIwCQYDVR0TBAIwADARBglghkgBhvhCAQEEBAMCBaAwMwYJYIZI
AYb4QgENBCYWJE9wZW5TU0wgR2VuZXJhdGVkIENsaWVudCBDZXJ0aWZpY2F0ZTAd
BgNVHQ4EFgQUEESErINKyfv/QzXKkiGfA4lwYmowHwYDVR0jBBgwFoAUJ46bIfEW
1jede+DeAbZyGkNphHswDgYDVR0PAQH/BAQDAgXgMB0GA1UdJQQWMBQGCCsGAQUF
BwMCBggrBgEFBQcDBDANBgkqhkiG9w0BAQsFAAOCAgEAQ8nEPNhsUopTdv4tR9NT
m0SfuDHAkTfdQOjjsnUSpfE6kCg3rI+eGI50F6pcNT573eJZtUbQCoy8Pfz6q25A
wUXqDmlxVLrYbbLF7wsT0dzcGwthRurgXgScgElqLSavkbQYMyqBajliv01jx95I
56fdVXf40Pt+9wg1CmVLcaLieeuz6vcsFpiebTVTZfFMgAMV7tZPX+7IPo0OuJD0
MmCkbu4AP9U4cq4GWOMK0eTSQpIztY9VbI1mkokPTpn+iPySg0lh7VggXzUtrni8
7+8YIGxJs0bU8p7ydtSO8lBtn4g+ZYaQiwc2kXJzifXOkSdOscS3CF7uzN1B2BQE
Evv5l4Yb00OOrufofCp6Vj5Zk/41LhzHF/wGB029U9rgVdEQITDVj7XHQoqyW7wp
lsF43XUwBt3++iBZKWjCIlQdFi0JiCetoLRpfY44X+hww90OTkwXiSQX90nuJQzT
x4CvPwsEcL3eDYiAfC/ge3GRmcdwwiCOUPbBw3nP5g3EPTtr24JMSg2joAe5v7+t
TxlbymrlUuS15ZfjlnQ7x5IbwNJBqrqR5z0VugIe/WdkpJ/2uuM6HPjc5ooy8Xm1
efU+AKb3Lf1/Gl1o4v7A/Pi8ihRY9ZeNC/FU6iPTDY4NrXU65irbR0ljq2IbTZfs
87b2fX0xkCRD+HqixeiVVaM=
-----END CERTIFICATE-----
