Certificate:
    Data:
        Version: 3 (0x2)
        Serial Number: 4101 (0x1005)
    Signature Algorithm: sha256WithRSAEncryption
        Issuer: C=US, ST=New York, L=Brooklyn, O=Timber.io, CN=Timber.io Vector Test CA
        Validity
            Not Before: Jun  6 21:14:42 2022 GMT
            Not After : Jun  3 21:14:42 2032 GMT
        Subject: C=US, ST=New York, L=Brooklyn, O=Timber.io, CN=test client
        Subject Public Key Info:
            Public Key Algorithm: rsaEncryption
                Public-Key: (2048 bit)
                Modulus:
                    00:f8:d0:a0:e6:58:da:15:bd:66:4d:dd:28:5b:47:
                    be:30:92:cb:f5:4d:17:b4:07:9a:54:be:2e:d6:20:
                    1d:c7:d9:1e:30:fb:ed:0e:17:34:41:f7:1a:6d:01:
                    72:0b:86:78:71:bb:cb:7f:97:d9:1d:12:36:f2:e2:
                    e1:a0:87:75:ff:2c:42:6e:f0:dd:fd:7c:41:ea:fc:
                    59:13:3d:4c:c7:50:ac:b2:42:f1:9f:d3:85:23:36:
                    f7:96:86:b6:4e:4b:fa:9c:1b:69:0d:13:73:ec:b9:
                    67:6b:51:08:bf:da:b7:cb:7d:80:b4:64:30:35:71:
                    17:70:d3:3d:d9:0c:82:b3:be:c1:8c:2c:bf:e0:7e:
                    3b:ec:f5:5b:33:29:27:8f:6f:36:8e:55:24:8d:b6:
                    bd:9f:80:37:06:10:84:26:1e:6d:93:45:b7:25:7b:
                    32:28:ed:4e:27:76:b6:bf:93:78:3c:b1:db:8f:a0:
                    41:d2:e5:78:ba:d3:a2:4d:da:d7:1f:a7:93:b6:f1:
                    d3:ff:f1:05:e5:84:89:b8:57:d8:f6:39:c8:9e:a1:
                    da:82:30:dc:78:fd:27:d8:70:73:32:29:20:34:5d:
                    8c:f7:82:d0:c0:36:38:a8:cb:ee:72:14:d9:c9:e6:
                    b6:68:ec:19:28:aa:05:4b:28:7d:ed:31:6f:40:ae:
                    06:e9
                Exponent: 65537 (0x10001)
        X509v3 extensions:
            X509v3 Basic Constraints: 
                CA:FALSE
            Netscape Cert Type: 
                SSL Client, S/MIME
            Netscape Comment: 
                OpenSSL Generated Client Certificate
            X509v3 Subject Key Identifier: 
                10:44:84:AC:83:4A:C9:FB:FF:43:35:CA:92:21:9F:03:89:70:62:6A
            X509v3 Authority Key Identifier: 
                keyid:27:8E:9B:21:F1:16:D6:37:9D:7B:E0:DE:01:B6:72:1A:43:69:84:7B

            X509v3 Key Usage: critical
                Digital Signature, Non Repudiation, Key Encipherment
            X509v3 Extended Key Usage: 
                TLS Web Client Authentication, E-mail Protection
    Signature Algorithm: sha256WithRSAEncryption
         2c:62:28:b7:38:84:0a:78:c4:56:0a:de:8c:8b:99:a7:3a:9e:
         38:cf:be:0b:9f:73:59:b5:01:a4:69:1c:5d:5e:de:63:7e:91:
         2d:ed:6c:6c:d4:30:34:ed:1f:bd:4d:f5:fa:1a:12:9c:5f:ad:
         e9:e2:ff:13:2e:18:6c:31:16:2f:4b:d5:68:9c:40:7f:6f:14:
         e0:bf:4a:59:1d:c8:3d:96:97:db:61:0b:fc:2a:d4:5b:69:47:
         56:b3:25:a6:12:94:be:a5:4d:82:8d:7d:3f:18:27:57:04:a9:
         b6:74:e2:d1:30:bd:0f:6a:4a:c1:82:47:f2:83:d0:ff:73:66:
         75:c4:0a:80:0f:22:e4:ab:ee:28:d2:59:65:b7:cf:fd:9c:e8:
         36:08:6e:43:c9:e8:cf:e7:9f:e1:ee:75:ea:6b:9b:06:af:9f:
         ae:2d:c9:cb:e9:17:01:69:4f:d2:41:ee:f2:6a:b0:8f:1e:52:
         86:aa:cd:26:c1:af:f7:b6:0d:33:7d:f6:ae:5f:46:28:23:e9:
         a5:c7:0b:02:cf:c3:33:f7:06:8a:6f:ac:d1:0d:fc:2d:e4:62:
         22:e3:d8:fb:52:de:22:bf:61:95:84:94:9d:89:bb:ec:96:b8:
         8f:5e:d7:fb:8c:7f:62:f9:a8:22:96:d0:ff:b6:67:47:24:52:
         21:b4:bb:1c:8a:b9:66:5b:97:e2:c6:eb:63:e2:83:2f:18:2d:
         4e:ad:a1:4e:c7:00:e2:11:24:c7:aa:29:48:69:66:f6:50:97:
         4a:60:40:27:c7:9b:30:10:d6:1b:6a:69:97:14:ae:93:b4:18:
         33:15:3a:35:69:5d:8d:49:47:56:8f:1b:97:62:32:1f:b8:9b:
         bc:31:5c:fd:ac:c3:7a:5d:c1:d0:55:83:0e:a0:91:2f:91:bf:
         62:ed:f6:d8:d7:d0:87:36:79:50:59:cd:9d:fe:66:8f:cc:5f:
         bc:9a:b4:7b:db:0a:fd:96:57:dd:e3:fd:3a:e0:5b:46:92:fe:
         ee:cc:6e:27:0d:0d:97:2d:61:35:79:92:4f:f6:c6:5b:f1:75:
         3a:d4:ee:c6:c7:17:d9:85:38:f9:10:88:fe:d8:76:a2:b8:db:
         1b:c8:39:de:44:be:a9:04:b2:20:05:98:7a:8a:4a:78:6e:4c:
         14:07:1c:f5:1b:48:ac:fc:ef:38:ee:e8:59:b3:67:00:19:2f:
         37:f2:66:8f:a9:66:54:ce:67:e5:bc:46:1a:84:af:69:fa:82:
         3c:44:c0:d3:c0:4f:ff:3f:76:4a:72:ad:e4:46:08:15:57:fb:
         9f:26:f2:bd:0f:06:cc:aa:a3:aa:68:fe:84:da:c3:a8:b5:c2:
         61:cf:ff:ac:d9:37:e0:0b
-----BEGIN CERTIFICATE-----
MIIFCTCCAvGgAwIBAgICEAUwDQYJKoZIhvcNAQELBQAwajELMAkGA1UEBhMCVVMx
ETAPBgNVBAgMCE5ldyBZb3JrMREwDwYDVQQHDAhCcm9va2x5bjESMBAGA1UECgwJ
VGltYmVyLmlvMSEwHwYDVQQDDBhUaW1iZXIuaW8gVmVjdG9yIFRlc3QgQ0EwHhcN
MjIwNjA2MjExNDQyWhcNMzIwNjAzMjExNDQyWjBdMQswCQYDVQQGEwJVUzERMA8G
A1UECAwITmV3IFlvcmsxETAPBgNVBAcMCEJyb29rbHluMRIwEAYDVQQKDAlUaW1i
ZXIuaW8xFDASBgNVBAMMC3Rlc3QgY2xpZW50MIIBIjANBgkqhkiG9w0BAQEFAAOC
AQ8AMIIBCgKCAQEA+NCg5ljaFb1mTd0oW0e+MJLL9U0XtAeaVL4u1iAdx9keMPvt
Dhc0QfcabQFyC4Z4cbvLf5fZHRI28uLhoId1/yxCbvDd/XxB6vxZEz1Mx1CsskLx
n9OFIzb3loa2Tkv6nBtpDRNz7Llna1EIv9q3y32AtGQwNXEXcNM92QyCs77BjCy/
4H477PVbMyknj282jlUkjba9n4A3BhCEJh5tk0W3JXsyKO1OJ3a2v5N4PLHbj6BB
0uV4utOiTdrXH6eTtvHT//EF5YSJuFfY9jnInqHagjDceP0n2HBzMikgNF2M94LQ
wDY4qMvuchTZyea2aOwZKKoFSyh97TFvQK4G6QIDAQABo4HFMIHCMAkGA1UdEwQC
MAAwEQYJYIZIAYb4QgEBBAQDAgWgMDMGCWCGSAGG+EIBDQQmFiRPcGVuU1NMIEdl
bmVyYXRlZCBDbGllbnQgQ2VydGlmaWNhdGUwHQYDVR0OBBYEFBBEhKyDSsn7/0M1
ypIhnwOJcGJqMB8GA1UdIwQYMBaAFCeOmyHxFtY3nXvg3gG2chpDaYR7MA4GA1Ud
DwEB/wQEAwIF4DAdBgNVHSUEFjAUBggrBgEFBQcDAgYIKwYBBQUHAwQwDQYJKoZI
hvcNAQELBQADggIBACxiKLc4hAp4xFYK3oyLmac6njjPvgufc1m1AaRpHF1e3mN+
kS3tbGzUMDTtH71N9foaEpxfreni/xMuGGwxFi9L1WicQH9vFOC/SlkdyD2Wl9th
C/wq1FtpR1azJaYSlL6lTYKNfT8YJ1cEqbZ04tEwvQ9qSsGCR/KD0P9zZnXECoAP
IuSr7ijSWWW3z/2c6DYIbkPJ6M/nn+Hudeprmwavn64tycvpFwFpT9JB7vJqsI8e
UoaqzSbBr/e2DTN99q5fRigj6aXHCwLPwzP3BopvrNEN/C3kYiLj2PtS3iK/YZWE
lJ2Ju+yWuI9e1/uMf2L5qCKW0P+2Z0ckUiG0uxyKuWZbl+LG62Pigy8YLU6toU7H
AOIRJMeqKUhpZvZQl0pgQCfHmzAQ1htqaZcUrpO0GDMVOjVpXY1JR1aPG5diMh+4
m7wxXP2sw3pdwdBVgw6gkS+Rv2Lt9tjX0Ic2eVBZzZ3+Zo/MX7yatHvbCv2WV93j
/TrgW0aS/u7MbicNDZctYTV5kk/2xlvxdTrU7sbHF9mFOPkQiP7YdqK42xvIOd5E
vqkEsiAFmHqKSnhuTBQHHPUbSKz87zju6FmzZwAZLzfyZo+pZlTOZ+W8RhqEr2n6
gjxEwNPAT/8/dkpyreRGCBVX+58m8r0PBsyqo6po/oTaw6i1wmHP/6zZN+AL
-----END CERTIFICATE-----
