-----BEGIN CERTIFICATE-----
MIIFgDCCA2gCFGGHHPVr7H+DaGd6KQKz6GAWL4voMA0GCSqGSIb3DQEBCwUAMHcx
CzAJBgNVBAYTAlVTMREwDwYDVQQIDAhOZXcgWW9yazERMA8GA1UEBwwIQnJvb2ts
eW4xEjAQBgNVBAoMCVRpbWJlci5pbzEuMCwGA1UEAwwlVGltYmVyLmlvIFZlY3Rv
ciBUZXN0IEludGVybWVkaWF0ZSBDQTAeFw0yMDA5MDMyMTQyMDFaFw00ODAxMTky
MTQyMDFaMIGBMQswCQYDVQQGEwJVUzERMA8GA1UECAwITmV3IFlvcmsxETAPBgNV
BAcMCEJyb29rbHluMRIwEAYDVQQKDAlUaW1iZXIuaW8xODA2BgNVBAMML1RpbWJl
ci5pbyBUZXN0IENlcnRpZmljYXRlIHdpdGggSW50ZXJtZWRpYXRlIENBMIICIjAN
BgkqhkiG9w0BAQEFAAOCAg8AMIICCgKCAgEA0OFPCw7hwYxBAZV7rltkUA0UcTkP
/mu8VG/uQBcJwz7bqZHjGJyVzuiaaeqg1DTx7CUbHwo/ZkRrB0XwsHDrJ3IrO8lg
9/TxGgMODou+mlALNo3aZPNylhZFmrWCUQTras4n3JhotfXnPlVJQcRNqRTpi8/r
TIhHXe/tlfDlRytEDN3uUwb97cDeKT0W8N+A7fuShe/W2sPusTWSDzMsFZdvgcHN
2ZiJnpu3fotESqC3Ph+EcIyXuYFSdVjSf/dO8PG2r2wNUw5Gjy31/5ePBElVtVtt
PCDeT8S4IzyA25xVJwmPQ5itIdoArNLGty/MS6iykJ3LqojA9H2k+qOLLOPRU5Yp
BTN1VBVxvzb/VMfcC6ohNQwf7hcIVSVzCEJkecz5WD7R/rYMi47eEwGLv1f+Ljzo
QtLyJrnDImeFi754SJ0lP1GXNRJKGZ94Duh43rRR5/Alyb05UB4lPPTBCYfL8ak3
LvmpqmFfc4BgxbGO5LmNzMgR7C+yY5a5C024NjEv3TvH9tM85wDngRmQIRaUxDp9
hDrROU6UwkiadyIv5/PFEjMkURyt4CDNyvv5A9dPzRTufMoa8ZLKboViPo1FvR6l
ycY5vIH0dQfOx+p41Q501yZGUAFog7JkIfeW8bqLFxda7+4UKf10M0/eZPUMO78O
vGD3nmVl04+jqsECAwEAATANBgkqhkiG9w0BAQsFAAOCAgEAYBHMFnnWfQFzpvH/
cw2sb5EYKuJe4UjoxJ40Gy58gljUz6fHcqu9XVC6DrjBTaOzMDCZqawoFxReLTXa
C7npaIWYabTpCyFNV8mwU3r1cYZumrCeIyxMqBPrkHygAtPpKbGpd8UAMFuNT9jB
Vv8C1lxlNEOH1G5x2x4m193ZpzI/pk3UdjO1uBRXgs8ALSJ3SVWOfhkq/Ab5IvjU
Ppch/c1XJqKsDgEHOzdyqoinRwIo69ed0ciALjYumwxuBcQjh5PkKl3+/65bAWJz
jKeV6tR9vubzpcu+2D1+RefocDSeN8aO2qVd5kG20Uo2Ym8QV7QBxmzTESh7prfG
Rs8rd0WwQTgB3rfrmminz5qWqEyaigPKPf6rSbQoNjJq6Ye5FjAFtA4LxFcm5VV/
mZF7DAVRhApF9HkM4fPcyWJK4Gy5O9YwFa5ZvnnCCupk77Miw4l98KG2Ul5meEyz
2FyJKj9rybA1LxXQkj1p27Ww7GJoArV4L2HFeWK3Qu4vwohFm9rLshZ1QhXXFnhq
8xS7bqDKAUpeAw7qvLm2Y0XLBppMR9zPfS3kPOVNNfPQDvHVY4pIIu+Vuw7DystE
JtTTzw0K+86nC58EYfavEAO52SfY5BDNZU6DBUEUo7xqo7qlNeutHHd0FASHIFUc
ItsQ4ZBM7QyOZrAvRIa4wO7nO/Y=
-----END CERTIFICATE-----
Certificate:
    Data:
        Version: 1 (0x0)
        Serial Number: 4096 (0x1000)
        Signature Algorithm: sha256WithRSAEncryption
        Issuer: C=US, ST=New York, L=Brooklyn, O=Timber.io, CN=Timber.io Vector Test CA
        Validity
            Not Before: Sep  3 21:42:01 2020 GMT
            Not After : Sep  3 21:42:01 2021 GMT
        Subject: C=US, ST=New York, L=Brooklyn, O=Timber.io, CN=Timber.io Vector Test Intermediate CA
        Subject Public Key Info:
            Public Key Algorithm: rsaEncryption
                RSA Public-Key: (4096 bit)
                Modulus:
                    00:b7:a7:c7:49:59:32:19:11:b3:df:11:76:9c:f1:
                    c9:0d:c8:58:53:6d:a1:16:4c:08:3f:f5:f6:ba:d3:
                    6c:45:1b:5e:cd:0a:73:ae:51:58:6b:ce:bb:d6:7c:
                    84:49:8c:9b:a1:70:c5:b9:d5:df:5b:59:2c:41:d7:
                    78:11:60:76:c5:bf:94:0e:9b:db:6c:3f:f9:ed:0a:
                    63:4e:c6:aa:a9:bf:d6:8f:b0:5f:5b:8e:b4:e1:2d:
                    ec:c6:bc:c3:a5:ec:b6:4c:a1:ed:97:90:29:92:71:
                    0e:1e:88:6a:27:d3:10:45:fa:a1:c2:50:05:05:5f:
                    fa:27:59:b9:25:5b:7a:b2:61:b8:f9:87:a7:ad:36:
                    cd:14:de:b8:39:e0:d8:84:d5:ff:0b:6e:f8:0b:d6:
                    52:86:8c:dd:12:bd:a4:04:7f:c1:4a:92:50:ad:a9:
                    fc:28:5c:02:be:60:bf:23:c8:49:9d:1f:28:3a:ef:
                    8b:75:57:6a:62:95:5e:9a:9f:a7:ba:25:10:86:f0:
                    a7:04:05:7f:44:90:67:09:9f:d9:a9:4e:c2:2b:12:
                    0a:0e:49:8d:e1:6f:dc:a9:29:cb:a3:40:fd:ba:a2:
                    1b:4d:b2:4e:9a:3e:65:3f:dc:49:fc:3a:62:61:91:
                    27:24:d1:1e:42:2d:97:b3:1d:78:57:f2:38:c3:11:
                    c0:05:63:0b:9b:a8:c2:51:36:0b:0f:d7:fd:8e:d3:
                    73:30:36:6c:c2:34:4b:5c:43:35:fb:5c:71:b6:b8:
                    f4:33:4f:19:fb:0e:4a:d6:79:fe:a8:cf:70:6f:47:
                    a4:eb:10:aa:64:cb:15:1a:6f:41:ba:50:1f:d0:15:
                    a3:37:e6:e2:85:fc:0c:db:5f:2d:cf:a1:15:0d:f2:
                    11:cd:e5:d1:7a:d3:9f:99:3c:e1:98:55:21:54:8f:
                    be:b5:06:e3:84:7a:98:24:4f:4c:28:7c:4c:18:98:
                    f2:64:09:1e:32:b4:de:93:d2:bc:a8:0e:aa:eb:28:
                    97:4e:2f:ed:7b:a9:0b:f3:ef:a8:8e:a3:f7:27:93:
                    e7:6f:0c:a7:4f:b5:0e:9b:9a:55:7f:07:51:c1:e5:
                    12:55:87:0b:1d:2e:cf:b4:11:ff:ac:83:f7:25:00:
                    c2:1a:86:55:37:c9:e6:f7:21:56:15:84:c8:82:bf:
                    ec:47:fc:63:25:59:27:9f:94:62:11:d9:ec:7f:01:
                    e2:fb:e2:91:95:ed:7f:ad:62:82:29:8d:2c:e9:66:
                    5d:3d:4f:b1:00:58:73:eb:d3:64:4f:b1:9d:f2:04:
                    71:ef:fe:b1:51:50:c4:b7:e5:43:f3:d5:25:99:67:
                    45:c7:d2:58:10:6e:c9:ab:3d:5a:87:2d:1d:10:c4:
                    72:39:d9
                Exponent: 65537 (0x10001)
    Signature Algorithm: sha256WithRSAEncryption
         0c:42:fc:87:30:d8:30:d5:ed:76:02:5f:4f:df:15:0c:ab:b8:
         03:36:d0:1b:fc:7a:18:ed:0c:bd:15:40:6b:57:7c:2d:77:e0:
         da:02:09:4c:21:fd:1d:22:e4:6b:8b:09:b0:93:23:14:e5:c2:
         d5:97:78:e2:7f:26:8b:8a:02:88:10:d0:2a:da:34:4f:71:22:
         2b:b6:90:1e:57:27:44:15:6d:f4:43:68:d2:2c:74:c5:b9:e0:
         1e:fb:80:f6:76:8f:d0:22:08:ed:2b:45:39:22:ac:c1:15:e3:
         4a:04:cb:96:e6:24:e7:fd:8b:14:4a:77:37:d5:47:43:8f:23:
         9b:bc:26:c9:0b:ac:d7:69:29:a3:c6:26:dc:8d:6a:b8:e1:e5:
         2d:a7:d8:44:f4:5a:07:c7:c1:4f:80:95:4a:30:79:ed:ba:83:
         f6:a5:a4:eb:ee:0f:4a:e2:ce:4d:41:03:a7:16:d9:5e:d2:c9:
         46:25:fa:5a:05:04:6d:9e:87:4f:53:4d:bd:28:ff:c9:4d:aa:
         2d:1b:79:16:2a:c5:01:1a:df:75:0b:cf:f8:99:ba:ef:62:e4:
         82:aa:7c:59:60:94:4e:2a:c3:1f:7e:e4:84:71:7a:71:bb:38:
         c9:17:55:62:20:98:c4:55:88:33:d6:c2:9b:0f:46:29:33:b8:
         f6:06:1f:bc:7f:f4:45:bf:f8:d8:76:00:d8:18:79:ea:70:02:
         13:75:91:5d:0c:95:96:cc:52:38:b2:72:8a:84:d1:f3:93:da:
         1f:4c:4c:4c:c0:03:b2:1b:2f:7f:76:44:47:88:32:2b:ef:6c:
         3e:31:f3:8e:2c:23:4b:11:64:80:5f:4c:ea:9f:af:4f:79:de:
         96:26:ce:b1:d4:41:61:b0:4b:a1:e1:c1:2e:1b:eb:71:63:60:
         59:ba:39:6f:cb:69:70:87:c1:0f:a0:d6:e0:a1:b4:e7:e6:70:
         be:96:35:13:59:be:7b:52:df:83:25:4d:dc:c7:18:1a:06:8c:
         b6:43:14:6e:ce:2f:42:3b:e0:ea:3a:a2:b0:a8:d6:68:82:cc:
         58:eb:2f:68:ef:38:85:bd:84:4e:61:9c:40:b5:83:5d:86:88:
         15:4d:d8:e5:d4:da:9b:65:a1:ca:8d:44:a8:80:98:35:ea:ad:
         95:77:81:f5:93:1b:49:64:29:4d:2c:5b:87:eb:21:69:82:04:
         7a:52:29:dd:dd:81:48:93:28:97:65:95:e2:91:0d:5f:d2:8e:
         fa:05:2b:07:3e:0c:32:76:f0:b2:60:81:b9:0c:ba:1a:ac:10:
         2e:99:78:40:a5:4a:18:f6:50:fb:e5:62:4b:47:33:27:31:b1:
         99:6f:c5:d2:7b:25:70:5b
-----BEGIN CERTIFICATE-----
MIIFVjCCAz4CAhAAMA0GCSqGSIb3DQEBCwUAMGoxCzAJBgNVBAYTAlVTMREwDwYD
VQQIDAhOZXcgWW9yazERMA8GA1UEBwwIQnJvb2tseW4xEjAQBgNVBAoMCVRpbWJl
ci5pbzEhMB8GA1UEAwwYVGltYmVyLmlvIFZlY3RvciBUZXN0IENBMB4XDTIwMDkw
MzIxNDIwMVoXDTIxMDkwMzIxNDIwMVowdzELMAkGA1UEBhMCVVMxETAPBgNVBAgM
CE5ldyBZb3JrMREwDwYDVQQHDAhCcm9va2x5bjESMBAGA1UECgwJVGltYmVyLmlv
MS4wLAYDVQQDDCVUaW1iZXIuaW8gVmVjdG9yIFRlc3QgSW50ZXJtZWRpYXRlIENB
MIICIjANBgkqhkiG9w0BAQEFAAOCAg8AMIICCgKCAgEAt6fHSVkyGRGz3xF2nPHJ
DchYU22hFkwIP/X2utNsRRtezQpzrlFYa8671nyESYyboXDFudXfW1ksQdd4EWB2
xb+UDpvbbD/57QpjTsaqqb/Wj7BfW4604S3sxrzDpey2TKHtl5ApknEOHohqJ9MQ
RfqhwlAFBV/6J1m5JVt6smG4+YenrTbNFN64OeDYhNX/C274C9ZShozdEr2kBH/B
SpJQran8KFwCvmC/I8hJnR8oOu+LdVdqYpVemp+nuiUQhvCnBAV/RJBnCZ/ZqU7C
KxIKDkmN4W/cqSnLo0D9uqIbTbJOmj5lP9xJ/DpiYZEnJNEeQi2Xsx14V/I4wxHA
BWMLm6jCUTYLD9f9jtNzMDZswjRLXEM1+1xxtrj0M08Z+w5K1nn+qM9wb0ek6xCq
ZMsVGm9BulAf0BWjN+bihfwM218tz6EVDfIRzeXRetOfmTzhmFUhVI++tQbjhHqY
JE9MKHxMGJjyZAkeMrTek9K8qA6q6yiXTi/te6kL8++ojqP3J5PnbwynT7UOm5pV
fwdRweUSVYcLHS7PtBH/rIP3JQDCGoZVN8nm9yFWFYTIgr/sR/xjJVknn5RiEdns
fwHi++KRle1/rWKCKY0s6WZdPU+xAFhz69NkT7Gd8gRx7/6xUVDEt+VD89UlmWdF
x9JYEG7Jqz1ahy0dEMRyOdkCAwEAATANBgkqhkiG9w0BAQsFAAOCAgEADEL8hzDY
MNXtdgJfT98VDKu4AzbQG/x6GO0MvRVAa1d8LXfg2gIJTCH9HSLka4sJsJMjFOXC
1Zd44n8mi4oCiBDQKto0T3EiK7aQHlcnRBVt9ENo0ix0xbngHvuA9naP0CII7StF
OSKswRXjSgTLluYk5/2LFEp3N9VHQ48jm7wmyQus12kpo8Ym3I1quOHlLafYRPRa
B8fBT4CVSjB57bqD9qWk6+4PSuLOTUEDpxbZXtLJRiX6WgUEbZ6HT1NNvSj/yU2q
LRt5FirFARrfdQvP+Jm672Lkgqp8WWCUTirDH37khHF6cbs4yRdVYiCYxFWIM9bC
mw9GKTO49gYfvH/0Rb/42HYA2Bh56nACE3WRXQyVlsxSOLJyioTR85PaH0xMTMAD
shsvf3ZER4gyK+9sPjHzjiwjSxFkgF9M6p+vT3nelibOsdRBYbBLoeHBLhvrcWNg
Wbo5b8tpcIfBD6DW4KG05+ZwvpY1E1m+e1LfgyVN3McYGgaMtkMUbs4vQjvg6jqi
sKjWaILMWOsvaO84hb2ETmGcQLWDXYaIFU3Y5dTam2Whyo1EqICYNeqtlXeB9ZMb
SWQpTSxbh+shaYIEelIp3d2BSJMol2WV4pENX9KO+gUrBz4MMnbwsmCBuQy6GqwQ
Lpl4QKVKGPZQ++ViS0czJzGxmW/F0nslcFs=
-----END CERTIFICATE-----
-----BEGIN CERTIFICATE-----
MIIGQDCCBCigAwIBAgIUMe49+YAr7wa9DVewf3DIAZMWNt8wDQYJKoZIhvcNAQEL
BQAwajELMAkGA1UEBhMCVVMxETAPBgNVBAgMCE5ldyBZb3JrMREwDwYDVQQHDAhC
cm9va2x5bjESMBAGA1UECgwJVGltYmVyLmlvMSEwHwYDVQQDDBhUaW1iZXIuaW8g
VmVjdG9yIFRlc3QgQ0EwHhcNMjAwOTAzMjExNDM2WhcNNDgwMTE5MjExNDM2WjBq
MQswCQYDVQQGEwJVUzERMA8GA1UECAwITmV3IFlvcmsxETAPBgNVBAcMCEJyb29r
bHluMRIwEAYDVQQKDAlUaW1iZXIuaW8xITAfBgNVBAMMGFRpbWJlci5pbyBWZWN0
b3IgVGVzdCBDQTCCAiIwDQYJKoZIhvcNAQEBBQADggIPADCCAgoCggIBALQ2QeHA
vyzRHOp2sId9EsjlYCCyILhOkFeo5TnXAp4HlC2Cvqqa2PmHCLbGq/VzKZZg1wNv
CudfdStmExhmLLRE6xg4rxiWcN9MlKwC1EeiItcX9pz03U7vUtsxSV+0ECyLU3qN
umw4IgMaKppx3uB/QqTAd7csPzvifYDgl5phN18L5rM6TgPXXxAhF01SdnZqc0VG
CDB7x+kqHynx1BvqcUUuCJuucJLXYyAnoauU4txnkq7d7SseuyfmtrYUDyLFyUnL
bvGEqqLhbAjN6UUlMNbIOwuUBSGS7a6zYrJ84ntI9wa/KjP49CNd5YRHBf+pLroD
Gpad6XTbRrqZ+1NmIchrMJrWpcxMzHX5XNFIPd7UBY+DasFtobAd6Y7Z3kcEo98M
0jEj5B61m/PlvhplC31shqWeYv4rz3ngBDkWxAmjcgnU04HfAz7sRMfPCdXwaNIR
muundgbFM4UMYnWfyMU3YtaxsbBFh/7pibG0Wcv7kqa14ZfebIwkqhvuyyAvD08Y
Ct2YOvDcgeCljUBzKv4muXs8wlOGiPLcvZY6Owvy2piCn0WgivpKroEf2QlKDFRv
2qUHF6a3Iet5llWkWvrZetcXyIqwOTY7h7vKjKl6x7yMp8BTwOLgiIO3F9T99JCB
ijsMWtgUIDN7dRSKtibsY+AeRzaDbJC4J99/AgMBAAGjgd0wgdowHQYDVR0OBBYE
FHOU4XY3VN9y56R5e4nrVttcmCDQMIGnBgNVHSMEgZ8wgZyAFHOU4XY3VN9y56R5
e4nrVttcmCDQoW6kbDBqMQswCQYDVQQGEwJVUzERMA8GA1UECAwITmV3IFlvcmsx
ETAPBgNVBAcMCEJyb29rbHluMRIwEAYDVQQKDAlUaW1iZXIuaW8xITAfBgNVBAMM
GFRpbWJlci5pbyBWZWN0b3IgVGVzdCBDQYIUMe49+YAr7wa9DVewf3DIAZMWNt8w
DwYDVR0TAQH/BAUwAwEB/zANBgkqhkiG9w0BAQsFAAOCAgEAql2uAAN8IEDelDc3
ZFXRbfYHBayaPMsEYlflPLbDottRBajBUMkb5kH/bIn3LX4DBcKFwA4P0SNdNxAK
SSixzmL71S+booDhwRagHGuO4+8GqfXbfdruMNLOmRzbVHBe82P68aN/B6m8yswh
rKN8n2LSSR2iVkmI2mW1erQplFZi7LxVC+dPQhiZQ6/yDh7wihZ9Rpjguchzi57n
7duUUJ5V50e/eojOG12IG/sRxKvRnbv7pksQAMS4MIlHviScQPKWp3j1skCX3/b9
vNYwm31+AAiCrMzldaeFW9yXGcfSA1aFPMc7O0EmlFSWOOaQheUbkjOt8HfU39SJ
sWCAgkGUNIO9dcyr1R8k0g7joOz6u5s8rvGpKW4WXTZfuPfif9nq3eYe4C6V2dsr
t4D8Bc81ciQLu0+yVqKV3gLnjJn610qPP+8NYjRyDTzYu1mdWSfT5XTb8uAwk0KN
KB1IO6VHGjBaoePHhek0ujacjEVqpHJkAbwLD3SB+d4VR5tYqRwTSPyOdQk6mCSV
KUziNUq779FInIsqb+B8YcCNQgTKB3CYWls9/3G+3J6ZGd0sJp6siiS8JJpAe6AC
aCu7u2KGAgeVENb17hN81jCdvxmI7qLcRJDNXbd8TFjAxdPE0Jo/kLFF5z8seZsa
+M0KqU1jsoabeNOx5KFG0jvqhOg=
-----END CERTIFICATE-----
