-----BEGIN CERTIFICATE-----
MIIFgDCCA2gCFEn1cE5USdj5o0Z62iHzUv0zp8HsMA0GCSqGSIb3DQEBCwUAMHcx
CzAJBgNVBAYTAlVTMREwDwYDVQQIDAhOZXcgWW9yazERMA8GA1UEBwwIQnJvb2ts
eW4xEjAQBgNVBAoMCVRpbWJlci5pbzEuMCwGA1UEAwwlVGltYmVyLmlvIFZlY3Rv
ciBUZXN0IEludGVybWVkaWF0ZSBDQTAeFw0yMDA5MDIyMDUxMDRaFw00ODAxMTgy
MDUxMDRaMIGBMQswCQYDVQQGEwJVUzERMA8GA1UECAwITmV3IFlvcmsxETAPBgNV
BAcMCEJyb29rbHluMRIwEAYDVQQKDAlUaW1iZXIuaW8xODA2BgNVBAMML1RpbWJl
ci5pbyBUZXN0IENlcnRpZmljYXRlIHdpdGggSW50ZXJtZWRpYXRlIENBMIICIjAN
BgkqhkiG9w0BAQEFAAOCAg8AMIICCgKCAgEA0Q9DkFei6LYl7yBWu60tguGF6IVi
85nBOcScXfTDIQi9g0Wt495vXRq4kCCCBWQCEFhLJbsGBJVCELSM4nYwY49fzQc8
l2Kty7nyFVQy+vN6VsPuxGzJ9YJVTWvh7LeGKvfP+8xJ84a4QUSZ8KSYRoBiQcFh
j07CqL8IDAjDH1syDw/RtZoYzffYiiBWl+gv2Ryn0wyVMKB+P1ejfe8HluG2G61o
OfAkVjEbVnnogsJRvh5aMdFc6bLwiqhGKCqoimHCBknhEoA5+OjjHmB6iwPbb33M
zbMEWLSJVld3nEqoXrS57NvYWOqFOPSrKgFcEkkPdiTUGFVusi74zCEvI7tWeEub
tvNQdtYzF3Vz4E4zPYC+zwd+6RYM8KAsUQHvAjvbfBETfPCuYVRzHKPAbzRIiFEe
gIfdYlwgRRVEWTBsRUlsP0UrgxcMlI2wJzfSEKoYLsBtMCU/UEJ9LM7ouv4gwsn/
Kt1TeyIH5gk6CaHSWMgRSPpw8Bdq3nXvdUFMGgnYFiwhDrSH8kqa/xgMnRDCfT8E
sEkHNNhro6/Cv7Zy0BmJodfDSPhjHnVuBwK80pXV8WMrm6DscCs8rkRKBHSnMXP5
ImupwN1rE4FjJXoN62Z1b53UDOM3tS6Q3NiwiJ34G2EKU676IC+mSkFm1GaMbvAe
KuDKTaWbSJD3e10CAwEAATANBgkqhkiG9w0BAQsFAAOCAgEAFXZ/dieBS4Nv+ifu
BnBSFYgegBSQTJc/71Ja4q5tBblPvaWLIHmJNJoVo3VjbR8ijhyYkpQvJ5/l8B2V
GGGeqtGJagmTHzpRCJBe0bmM5CNPPHiK67nsJkRuKW5GLsJ5di+nY6EcHu/Ec1O4
+BJ+pxrCUEfOuIftbg/7PVhRs/lOeQVWTZe9rRQkwsLKEgbLf/150t9vYoD8gwjk
i3t7h0Twy+bz/d/sa2luiG4H5raLGVWuYZaNo/K77v6hyBGNd88qqwaq9nfGZeKY
tEwvxDkBmGa8Dk0QzU+5kMtOnXd6jkEikVYYVdz7yIROgad3+O/1Wpwbzazj441V
sXqF3y0qXSkZ/BSRp1YnZNJduuDSUJqw7zURv4T9xFzd6v6yQzezhPxQSrHykLG4
B2tHwmJ8UiUFhIzP4/jKzQK2aHS92NNHzD9oXmUdgYSqiDloYbmYc3Lcn6fe9qWS
CCvgyjso2jWWVAtnVQd9muxLom3prsj5VE9YL8qpeoPqKsCfSyjLD9FsziLI+b52
J990wkbeuQzy3rnIkIqa3uUiZTdgo0cFbqWKjyyu8+ulUPLkYlVy4uO/XAWk2wXB
GKWtyYk+OGDTzO9LWkfplT6f3GZwEfda6LobC2lu1cXfD7rXZZdcvroS1CuTycwp
plFZF4P08eFveQmRlWNFSuaxi6U=
-----END CERTIFICATE-----
-----BEGIN CERTIFICATE-----
MIIFWzCCA0MCFF8B1KPo2P8RiBh4U6p+uKnwLdxAMA0GCSqGSIb3DQEBCwUAMGox
CzAJBgNVBAYTAlVTMREwDwYDVQQIDAhOZXcgWW9yazERMA8GA1UEBwwIQnJvb2ts
eW4xEjAQBgNVBAoMCVRpbWJlci5pbzEhMB8GA1UEAwwYVGltYmVyLmlvIFZlY3Rv
ciBUZXN0IENBMB4XDTIwMDkwMjIwNTEwM1oXDTQ4MDExODIwNTEwM1owajELMAkG
A1UEBhMCVVMxETAPBgNVBAgMCE5ldyBZb3JrMREwDwYDVQQHDAhCcm9va2x5bjES
MBAGA1UECgwJVGltYmVyLmlvMSEwHwYDVQQDDBhUaW1iZXIuaW8gVmVjdG9yIFRl
c3QgQ0EwggIiMA0GCSqGSIb3DQEBAQUAA4ICDwAwggIKAoICAQC3ge3nizHwVc9j
SPisrZ09aMBHMv/+O0nlTwoyVK19XITBwxvnoEwtJvgxwsoEVq/0lzVNEiSbmXAl
exYE2DjGcVa+q34wSEJlBvumA7a/zu/LlvbbSXrPsg8mKp2bqw3izWj8d0DaKXA5
rgEa3mVJys7oi2cSw0Nt2a2YVjNamuQJLTkBpIjmWiLrN+qr2szu2YGnLxHRLGCI
rruXSMYo0IKXgaMQRPDD9lSbtL4BQH+43K6Kxe58pQZsD9kadCLACiWRsmqgoRKF
L2kZtmQz2KTruhidBai09Ia2D98G0IpKsLm3CVUsSE3xx0SpXwJeH0sLhNzLCNPt
xnYym4j2QsRjG4EayFjKLhyYUvlkFj8x2OzL61ZHMB43rx6Z21CAKlObutlesKfw
TGZUlkUEqxpH1YRkmx0EiLj8VQUWTDS4k6tLsN5TPz6PUsY9F62+K6zRKUDxTn5j
sUm+F7pxtrFlHRx1dCV7pA7onQ6M6Hu7t3qmoqhGU3GEZIYGDAqyn39x3+Fl4jyH
uu3tdpvsgsgHj9rNMBrhvBc7vJ3V7V3DDH9LdiDqJGuhD4EVe4WnOLN7Vw2M4riR
9jdDqu8eapTDPrtfKvk1UPPcOheo+oM4Q4hz3gr4eoIjQnomQ6ERCs+lGGr8ZSy9
udiuX8lF4ubzB0snCdR7k2EQ28BmlwIDAQABMA0GCSqGSIb3DQEBCwUAA4ICAQCk
IMh8ALuwmeO0psmE8b4HxudzWVw7gOTeOlACVXkd9Lkdo6PSxGFhCAa73NkUFwsn
c24yaxRus+55+FqFXMa0GY9oMLHHmKUiS/4NJhtkmMELmA4pR2lgAt+Bcu7vBmG/
JsQ+QIGOu8OV175KVCakLbe1Hm5i86RCg0d9WQmpzC0gwGGOdBccHMTrHXeuj3Sk
9Zo8gWUBw7i0KiBHlXRjOsfVZgC7MD2P22qSYOe7TTshPMS0DwDB50EgStyq/zfd
NHR4wRICV421y8pkKDrOGICqcNGRbLYqvr3aKSVGpRjjM1H4fHFYbqgDGl2t7luy
WtyqvN4kuk0MvRQpvBdS1TYNAoGSiSCabh8cGn7Vn/aJoFkdG++nm3Fsg7C1mJe7
BQCJ39dZvub9YZP3tDzJzWP3hSV0EqQTgr/MYtjlrTL27vu9CEatwSsqccGgDN0B
JT6o2dEsuKCGEr6epvQKpXGFXHXNEGvxnwAPO5+2vqTyYhWCIc/C+bvf+Kyf6vjz
0fHbTJ5lm3Vk1iNH9RY1jVapE0NoAInWV5apaCYCmNU4uBWF73eZonc15zoPBHJW
+o+pSF1i9DfTkaRs1PtphJH7cWxRQIpGLFuJHbTNK2oY/mMNHiEMl8ZmpTZkGUS1
upxrBXKyiY43Nt01M45VnxSz1flYoBX8yAtAkN5ciw==
-----END CERTIFICATE-----
Certificate:
    Data:
        Version: 1 (0x0)
        Serial Number: 4096 (0x1000)
        Signature Algorithm: sha256WithRSAEncryption
        Issuer: C=US, ST=New York, L=Brooklyn, O=Timber.io, CN=Timber.io Vector Test CA
        Validity
            Not Before: Sep  2 20:51:04 2020 GMT
            Not After : Sep  2 20:51:04 2021 GMT
        Subject: C=US, ST=New York, L=Brooklyn, O=Timber.io, CN=Timber.io Vector Test Intermediate CA
        Subject Public Key Info:
            Public Key Algorithm: rsaEncryption
                RSA Public-Key: (4096 bit)
                Modulus:
                    00:c0:ab:37:4f:91:18:60:d2:b5:e2:ad:b7:07:58:
                    01:3f:26:76:f9:26:09:21:a0:72:73:e7:9d:72:fd:
                    06:c1:2d:1b:d8:ba:44:e5:12:a7:51:33:f2:f4:2d:
                    cd:bf:c2:bc:49:c6:fb:42:e4:06:35:f5:eb:4e:78:
                    7d:8e:89:4c:06:9b:33:4c:92:a6:f2:79:d6:f0:81:
                    4b:fb:eb:d1:92:c1:79:d8:d4:58:b5:3d:45:5a:6a:
                    a5:0e:d1:a2:73:e6:6e:94:94:2f:0b:3e:02:e9:4c:
                    b0:3d:58:fa:b0:5e:b3:c5:5a:56:bc:03:40:7c:2e:
                    3c:8d:9b:80:15:7e:0f:3c:cb:ff:38:10:14:b2:b5:
                    a3:22:82:95:00:e6:25:33:5a:13:bf:31:28:fb:aa:
                    b6:62:2f:fd:74:b0:96:99:40:e8:87:de:15:9a:89:
                    2f:a7:02:26:64:48:70:5a:39:71:30:47:ac:dd:f4:
                    a9:21:75:96:bd:5c:67:53:5f:6a:0f:c3:68:9f:78:
                    89:38:bf:65:88:e1:62:a0:23:4e:ce:c4:3b:70:29:
                    61:c5:41:42:a5:f5:3d:93:a8:8b:cb:4e:fa:ce:56:
                    77:5c:b1:a1:08:03:e9:02:bb:01:9f:78:b2:17:1d:
                    2a:73:bf:3c:af:03:b8:23:8e:c3:74:c7:29:a1:23:
                    e7:ca:45:56:24:c2:86:a1:c3:4b:72:b0:cf:ef:45:
                    4c:19:f1:d0:0d:66:57:c0:c2:17:3b:6e:45:4f:40:
                    d2:5d:8e:d8:3b:5d:01:f2:f0:2a:0f:21:ea:36:f2:
                    05:c0:b3:24:b2:da:87:91:a7:47:27:46:d3:8b:17:
                    7a:6f:f4:0b:93:85:7a:f5:2a:3c:51:2b:f4:fd:1c:
                    b8:7f:cb:4d:8b:b5:f5:b5:41:c0:3d:99:77:2e:78:
                    21:d3:dc:be:71:1c:51:3d:ca:91:92:4f:2e:69:82:
                    e9:8d:93:0d:fd:6e:c2:af:f0:bd:31:d0:40:42:07:
                    53:69:77:13:ec:32:d2:17:04:f0:a8:16:e9:f6:d4:
                    69:fc:2f:63:2a:ff:7c:6a:de:d2:b4:4f:04:d8:2f:
                    9f:dc:80:aa:c5:e0:ed:19:f1:95:51:cd:fe:25:c8:
                    2e:0c:ba:4f:27:48:f2:da:7a:c2:a7:a2:ca:b1:47:
                    a4:ff:88:a3:38:1c:3b:20:ed:69:be:d6:8c:3c:f7:
                    82:45:80:5a:2a:8a:90:ec:99:2b:fa:27:30:a5:54:
                    c0:31:8f:09:74:f5:3c:f4:85:67:1b:88:9d:1b:3f:
                    96:2f:6d:76:a3:68:9a:d0:7d:b9:a4:40:ef:99:8a:
                    aa:b9:56:5c:03:79:f7:e9:98:fa:47:72:1c:49:04:
                    84:7d:8f
                Exponent: 65537 (0x10001)
    Signature Algorithm: sha256WithRSAEncryption
         53:36:94:28:49:25:31:b2:0b:c7:3c:4a:7a:8d:d9:43:07:6b:
         28:38:85:2e:e8:36:3a:6e:c6:65:45:41:9b:47:65:e0:cd:e4:
         c3:86:f3:f4:a7:14:8d:dd:d9:81:99:fd:be:aa:e5:c0:7c:7d:
         87:e4:7a:1c:e7:17:60:0a:48:61:84:6a:b0:f9:72:15:c3:7d:
         3e:e5:33:03:c7:d1:bb:79:d6:f0:cb:ee:c3:d7:44:0a:80:68:
         d1:bb:70:fa:5a:a7:0d:90:19:4f:82:21:2c:71:ab:93:aa:64:
         37:c6:29:d4:7e:eb:ff:7e:ed:72:44:56:b4:45:83:b5:64:80:
         be:0f:3d:f1:92:92:dc:1b:e5:42:66:1d:0a:4c:93:84:9b:a5:
         30:5b:3d:7b:db:4f:40:6a:2b:7e:81:a4:49:ab:e7:c9:a3:cf:
         3c:40:a3:ed:13:57:08:46:89:16:42:e6:55:b6:be:a6:85:d6:
         e6:b5:bb:4c:8a:c7:6b:db:2b:1b:28:68:d6:97:c1:c0:89:c7:
         b8:db:36:3d:fa:79:e3:eb:aa:ca:4f:6e:a1:f7:77:93:ac:ae:
         72:e9:e9:9c:5f:25:08:81:df:36:eb:2b:7a:01:8c:dc:0d:a4:
         61:9b:47:fe:89:f3:53:d0:fe:51:20:31:4c:9c:c2:da:21:eb:
         13:03:0f:d3:09:95:f9:21:f6:60:e8:a6:cb:4a:eb:8d:7b:41:
         80:fa:ce:88:4e:e4:c2:13:79:cc:65:de:41:88:19:b0:91:c6:
         c7:a2:11:04:60:7c:d3:a2:48:ee:4c:71:5a:87:9d:e6:dc:81:
         60:f4:20:57:80:d2:7b:e3:6f:cd:c9:40:d4:5e:34:96:28:b3:
         b7:bc:d3:3f:60:77:f5:e1:28:d0:76:88:1c:c7:dd:28:ab:9d:
         93:f2:9a:42:1c:01:f4:d8:61:12:1a:d0:5c:ed:a8:28:13:a5:
         91:d0:dd:10:59:40:15:b8:00:d6:f8:e5:64:26:30:bf:01:df:
         cf:ce:b9:da:6e:08:86:c6:33:b7:4b:a9:d6:3d:e6:c4:a2:a0:
         57:bc:1b:60:fa:64:f2:bd:fd:b1:9b:62:7f:71:68:a7:d7:f5:
         c0:1b:c8:76:f8:3b:8e:27:2a:c7:db:c5:ae:4a:75:63:c2:df:
         6a:3b:11:be:1f:70:a5:b1:ff:2e:de:8e:72:19:11:10:b2:fe:
         8a:76:30:eb:31:2f:78:b3:02:a1:1c:9e:42:19:37:dd:71:b8:
         dd:f3:c5:00:4f:b3:6f:b5:d6:44:02:6b:11:8c:e0:a2:5e:37:
         7f:a9:85:81:88:38:69:b4:4e:ac:a8:61:0f:74:31:86:3d:32:
         6b:d7:d7:7e:5c:1c:aa:be
-----BEGIN CERTIFICATE-----
MIIFVjCCAz4CAhAAMA0GCSqGSIb3DQEBCwUAMGoxCzAJBgNVBAYTAlVTMREwDwYD
VQQIDAhOZXcgWW9yazERMA8GA1UEBwwIQnJvb2tseW4xEjAQBgNVBAoMCVRpbWJl
ci5pbzEhMB8GA1UEAwwYVGltYmVyLmlvIFZlY3RvciBUZXN0IENBMB4XDTIwMDkw
MjIwNTEwNFoXDTIxMDkwMjIwNTEwNFowdzELMAkGA1UEBhMCVVMxETAPBgNVBAgM
CE5ldyBZb3JrMREwDwYDVQQHDAhCcm9va2x5bjESMBAGA1UECgwJVGltYmVyLmlv
MS4wLAYDVQQDDCVUaW1iZXIuaW8gVmVjdG9yIFRlc3QgSW50ZXJtZWRpYXRlIENB
MIICIjANBgkqhkiG9w0BAQEFAAOCAg8AMIICCgKCAgEAwKs3T5EYYNK14q23B1gB
PyZ2+SYJIaByc+edcv0GwS0b2LpE5RKnUTPy9C3Nv8K8Scb7QuQGNfXrTnh9jolM
BpszTJKm8nnW8IFL++vRksF52NRYtT1FWmqlDtGic+ZulJQvCz4C6UywPVj6sF6z
xVpWvANAfC48jZuAFX4PPMv/OBAUsrWjIoKVAOYlM1oTvzEo+6q2Yi/9dLCWmUDo
h94VmokvpwImZEhwWjlxMEes3fSpIXWWvVxnU19qD8Non3iJOL9liOFioCNOzsQ7
cClhxUFCpfU9k6iLy076zlZ3XLGhCAPpArsBn3iyFx0qc788rwO4I47DdMcpoSPn
ykVWJMKGocNLcrDP70VMGfHQDWZXwMIXO25FT0DSXY7YO10B8vAqDyHqNvIFwLMk
stqHkadHJ0bTixd6b/QLk4V69So8USv0/Ry4f8tNi7X1tUHAPZl3Lngh09y+cRxR
PcqRkk8uaYLpjZMN/W7Cr/C9MdBAQgdTaXcT7DLSFwTwqBbp9tRp/C9jKv98at7S
tE8E2C+f3ICqxeDtGfGVUc3+JcguDLpPJ0jy2nrCp6LKsUek/4ijOBw7IO1pvtaM
PPeCRYBaKoqQ7Jkr+icwpVTAMY8JdPU89IVnG4idGz+WL212o2ia0H25pEDvmYqq
uVZcA3n36Zj6R3IcSQSEfY8CAwEAATANBgkqhkiG9w0BAQsFAAOCAgEAUzaUKEkl
MbILxzxKeo3ZQwdrKDiFLug2Om7GZUVBm0dl4M3kw4bz9KcUjd3ZgZn9vqrlwHx9
h+R6HOcXYApIYYRqsPlyFcN9PuUzA8fRu3nW8Mvuw9dECoBo0btw+lqnDZAZT4Ih
LHGrk6pkN8Yp1H7r/37tckRWtEWDtWSAvg898ZKS3BvlQmYdCkyThJulMFs9e9tP
QGorfoGkSavnyaPPPECj7RNXCEaJFkLmVba+poXW5rW7TIrHa9srGyho1pfBwInH
uNs2Pfp54+uqyk9uofd3k6yucunpnF8lCIHfNusregGM3A2kYZtH/onzU9D+USAx
TJzC2iHrEwMP0wmV+SH2YOimy0rrjXtBgPrOiE7kwhN5zGXeQYgZsJHGx6IRBGB8
06JI7kxxWoed5tyBYPQgV4DSe+NvzclA1F40liizt7zTP2B39eEo0HaIHMfdKKud
k/KaQhwB9NhhEhrQXO2oKBOlkdDdEFlAFbgA1vjlZCYwvwHfz8652m4IhsYzt0up
1j3mxKKgV7wbYPpk8r39sZtif3Fop9f1wBvIdvg7jicqx9vFrkp1Y8LfajsRvh9w
pbH/Lt6OchkRELL+inYw6zEveLMCoRyeQhk33XG43fPFAE+zb7XWRAJrEYzgol43
f6mFgYg4abROrKhhD3Qxhj0ya9fXflwcqr4=
-----END CERTIFICATE-----
