-----BEGIN CERTIFICATE-----
MIIFWTCCA0ECFDjE/h5Oqcga4xaKYO+/59LUAskfMA0GCSqGSIb3DQEBCwUAMHcx
CzAJBgNVBAYTAlVTMREwDwYDVQQIDAhOZXcgWW9yazERMA8GA1UEBwwIQnJvb2ts
eW4xEjAQBgNVBAoMCVRpbWJlci5pbzEuMCwGA1UEAwwlVGltYmVyLmlvIFZlY3Rv
ciBUZXN0IEludGVybWVkaWF0ZSBDQTAeFw0yMDA5MDMyMTU0MTFaFw00ODAxMTky
MTU0MTFaMFsxCzAJBgNVBAYTAlVTMREwDwYDVQQIDAhOZXcgWW9yazERMA8GA1UE
BwwIQnJvb2tseW4xEjAQBgNVBAoMCVRpbWJlci5pbzESMBAGA1UEAwwJbG9jYWxo
b3N0MIICIjANBgkqhkiG9w0BAQEFAAOCAg8AMIICCgKCAgEA1gMfSc88fw+dOFP/
/Dp76zwKncIvmvbYjl2Z5BpXiLNPunFnzlPKlT1+CLDm7zQ3Ngm4U7azLeCY1OEz
x2RjBoobb1O+mSjQlcYWBGblLLMU4Bx8PsSvlrnCI52C7FZRx1+nuEFQvLFBNhlg
zyehK1g1qvVTBEIaBs0GLnu2aagmNFXXAkChVgjLgtMz/zu32x/nJsctK6RtJy1N
iYGmlKaQ6sdJ6f2DJfXGe+eqJwF2PggXJmcsNBteXxSGRCPOoW1ro9Sd3n7JoxSY
O+eImswf2/F0vEVnlLBLsKcOeIwx/uSBlOhPKeRgMeZsdgxGvta2GVReFimUJOE/
0+5x3NtMjR9njs9dzFQf49Evxo6txnHoclsneGjC7NxEdd1bsf4hZjSqdaLbHP0l
fbISSTi4mE78Il7rUV3lheez9pHzu+fkR1p2lLZfB7J5XeKsROaZQ4G2z3OMtYj5
5fTqp0P9PneWPcYinRt/oEU42Q3ks5lMTmJs4mlyMpe20tCs90pKPRfVPJW225of
NzZ5vwgGI5x0XJdFh3ldtD9dOSr04Rq6Xsj9bHC0lGO79eYd3nNWKVVOHIEblI/5
6D5T4U6yE7LUw4DfbInBgTllHn0logebEaSfC2GYCTDd2a2x1YudVtvkxFQIBbrc
9VwLx0EfxtA897+rfabrQj3uz6UCAwEAATANBgkqhkiG9w0BAQsFAAOCAgEAaRlc
4FQ5lNVNq6XYq3NV92DlINpis5pZ7p3GOOHIifrAGlEizMijGlc3YXHrBFGBW/lz
ox9KakgIK0yIdml7SEkacljq6QykAP1Osk74kMlqkqCTnKjsJ6BqmVJoEirEIWht
YmbptXUR/o7aZQDD07Qv9P5zSwFR8ZMsu9baBCFY6euQv1ttxKSi1cKgg5lJCt0e
whivXG3Q+E7Iw2+aDMogPR/QeX45HO/a51ezyND8wpOBmJMYKlE6tw1oH1yMWCRB
M/lWdfxQNKHBziWbJlXfxvVMqspfDP48u7dZ9L7oEQQMViV19txiB9kQ+f7G8tEQ
FYKKqBqccjPESePdWRYi9Fiub2zdeTmtJEYL+nZnT7l2KA6YXkxEYfD9Q9QDvIiO
yTRdB8KHOXzkr1X6L207V08Jedmbs3l8qwdCS7B4NJuMvFC/MP8jLMsYMe3nHlc0
hI3sug3yE/toQx7wYGcLZQ5ext2kCWNoA6YYUux+dW8eXLn2BvSjzPFyXbB/l6LG
2EGmloS1UCDm/AiT6LD59/6UpHEJ27PMgVd+QjUjtGXr+uFb88+MGVY/j8UdSad3
CIMlw2TYM+z/HJXqMnCLDTbk3iFEd4fAWV/4twHXadsl6RB6fGEP130/B9spAtin
oHekz7HloErZR/DXLNs5olst699HJ4SBrrhGCZ4=
-----END CERTIFICATE-----
Certificate:
    Data:
        Version: 3 (0x2)
        Serial Number: 4096 (0x1000)
        Signature Algorithm: sha256WithRSAEncryption
        Issuer: C=US, ST=New York, L=Brooklyn, O=Timber.io, CN=Timber.io Vector Test CA
        Validity
            Not Before: Sep  3 21:54:10 2020 GMT
            Not After : Sep  3 21:54:10 2021 GMT
        Subject: C=US, ST=New York, L=Brooklyn, O=Timber.io, CN=Timber.io Vector Test Intermediate CA
        Subject Public Key Info:
            Public Key Algorithm: rsaEncryption
                RSA Public-Key: (4096 bit)
                Modulus:
                    00:bc:cb:3d:68:9b:fa:28:e1:42:74:f6:a9:49:49:
                    0f:ea:2f:63:88:e0:cb:61:b1:cf:e1:70:ea:9e:96:
                    88:ca:b2:c2:f7:00:dd:02:b9:ee:ef:fb:6d:8c:9c:
                    3a:72:a3:b2:54:6f:28:65:38:f7:3f:ab:d8:c4:a7:
                    a7:3a:1e:c6:86:89:38:3a:65:40:e4:cd:1b:5c:df:
                    09:1b:2a:8c:3a:9f:bd:aa:41:a9:72:6e:c7:68:3a:
                    93:91:c1:f9:aa:cf:12:09:4a:f3:0d:66:fa:8c:0f:
                    9d:e2:89:27:16:69:58:1a:4f:5a:b1:d8:67:11:b8:
                    a5:a8:88:8b:6f:9e:08:55:d2:ee:cc:83:28:0d:04:
                    33:72:63:c4:12:a6:2b:a0:82:2e:28:fe:1f:16:11:
                    a9:b7:53:5c:9d:36:fe:4f:e2:89:ed:57:38:94:3d:
                    35:00:7e:7b:cc:d4:9c:1c:03:30:c4:0f:61:3b:4b:
                    10:21:9d:07:82:90:b5:d9:b9:a0:5d:a1:3f:1a:31:
                    55:3c:a2:36:30:65:84:bf:26:7f:00:88:e3:1e:0f:
                    71:9e:d0:d7:e3:9c:92:40:41:7e:6f:1f:da:f7:2a:
                    80:e4:d8:ed:7c:16:56:31:91:3c:e6:ee:85:80:ff:
                    4a:0f:01:8f:91:25:4a:37:01:2e:ab:b9:85:a9:16:
                    61:cc:7a:44:d0:4d:36:cb:86:2b:8a:74:b2:0f:c5:
                    35:1b:6d:45:e1:7a:00:ba:d5:a2:80:0a:89:a0:87:
                    20:67:91:02:f2:5c:b6:99:87:14:b1:98:1d:0c:af:
                    19:54:f9:d7:c3:24:38:a0:03:f2:fc:3b:f9:52:bf:
                    8c:23:8b:74:f7:c7:eb:af:01:9c:45:67:0c:e1:28:
                    48:8c:d9:f8:92:af:0e:08:7c:9b:7a:47:72:75:d9:
                    64:70:81:e4:1c:26:ff:61:70:2a:20:13:6a:a6:00:
                    51:dc:5c:cb:57:2e:b8:b5:29:43:3f:5c:c6:01:a8:
                    58:34:07:53:59:92:5e:3d:93:04:a2:a3:4e:1b:52:
                    21:a5:6e:68:b0:ba:f4:52:22:f7:a0:64:91:3c:81:
                    de:e9:47:f5:4a:b8:cc:d6:c0:2d:92:85:bb:7c:16:
                    d4:6f:55:92:2a:33:f1:66:d0:f8:21:86:1c:13:3a:
                    9e:a3:ee:32:53:7f:9a:ac:54:ec:4a:9e:6d:90:43:
                    96:5d:17:f9:f3:09:33:a2:cc:cd:53:49:67:31:56:
                    e8:d9:3f:27:f9:b7:9f:81:00:df:f9:53:70:97:a2:
                    d3:6a:9c:a0:24:01:d5:1f:96:7a:c7:c4:ab:c4:bf:
                    20:17:43:2e:4f:16:ff:34:62:05:18:2e:48:b8:e6:
                    ac:ec:9d
                Exponent: 65537 (0x10001)
        X509v3 extensions:
            X509v3 Subject Key Identifier: 
                68:86:AE:17:00:60:3B:4A:AD:94:91:37:49:E1:ED:3C:E1:68:62:61
            X509v3 Authority Key Identifier: 
                keyid:27:8E:9B:21:F1:16:D6:37:9D:7B:E0:DE:01:B6:72:1A:43:69:84:7B
                DirName:/C=US/ST=New York/L=Brooklyn/O=Timber.io/CN=Timber.io Vector Test CA
                serial:2D:4D:88:0B:DE:9A:16:BA:F6:E2:DF:9E:AB:F2:35:EF:9E:6F:6C:2F

            X509v3 Basic Constraints: critical
                CA:TRUE
            X509v3 Key Usage: 
                Digital Signature, Key Encipherment, Certificate Sign, CRL Sign
            X509v3 Extended Key Usage: 
                TLS Web Server Authentication
    Signature Algorithm: sha256WithRSAEncryption
         06:ec:b6:d6:61:5d:6d:e5:a0:17:31:42:0e:50:b9:e2:2c:b1:
         b0:c6:c6:bf:06:8f:7e:e0:60:03:a0:7f:e1:59:44:5f:97:40:
         64:19:59:8d:bc:42:57:a5:4a:79:c5:5f:0f:c5:95:60:58:9a:
         ac:63:47:e5:bd:99:b3:11:90:8d:61:bd:a3:1f:a1:ee:1e:05:
         60:fc:ca:f7:df:72:bb:88:34:30:f3:3e:cc:32:e8:7b:23:b5:
         ad:77:42:8d:ff:fd:25:72:d7:ce:f3:46:12:9a:02:be:13:84:
         16:a6:16:e2:17:65:93:1b:aa:59:53:a2:be:a3:48:9e:83:95:
         8d:ce:8e:f6:46:0b:74:23:13:29:43:f1:0e:29:0c:d4:b7:ca:
         a1:5a:fe:b4:7b:ea:b7:c1:ec:be:af:9f:93:bc:8e:0c:99:20:
         cd:9c:25:52:36:4b:09:cd:96:88:d2:56:e4:dd:bf:b3:5a:0b:
         26:cd:16:76:67:82:e5:24:cf:89:4b:71:1e:c7:e2:c4:f5:09:
         ae:d2:62:2b:31:be:ba:69:f0:23:57:5a:eb:41:25:61:19:b7:
         7a:97:ee:0b:90:38:34:f5:b3:d5:0d:ae:c6:ca:66:ca:67:9b:
         46:94:91:6e:b0:b3:f0:9c:c1:28:9b:33:fe:71:68:8a:ad:7f:
         b2:94:62:01:83:c2:f2:ff:99:fb:13:87:83:d4:c4:fa:08:97:
         bb:fd:05:1e:c3:c0:1e:8f:c5:1c:6d:f0:e7:17:70:52:0a:f5:
         7a:d6:dd:df:89:3f:b2:4c:98:d6:95:af:b4:e8:94:3e:d9:d3:
         6f:c2:26:81:3f:3f:be:31:c2:d8:db:d2:3c:d0:03:b3:31:46:
         17:bd:8b:5a:57:8a:16:b1:65:f1:36:4b:dc:a4:dc:a3:44:ac:
         ec:1d:c3:5c:87:08:35:e2:7d:22:fe:6e:05:03:c7:de:c0:46:
         a6:db:d0:f2:96:2e:ad:3b:80:fe:dd:96:65:1b:d3:21:4c:b9:
         b0:37:92:98:93:65:00:a2:f7:51:38:45:7d:37:18:30:06:9c:
         b1:20:73:2b:b8:f8:db:9b:3e:28:50:92:36:c6:5a:1b:d6:d0:
         14:86:c4:48:8d:6c:79:ca:20:41:6f:83:d2:5b:86:cb:87:7f:
         01:c6:44:85:7c:60:b9:25:c4:c7:04:bc:46:7b:d7:9b:c3:b5:
         5b:2e:8b:7d:b3:35:7a:f4:00:91:ab:fd:e3:9d:1e:45:00:0a:
         3a:77:60:bf:ab:55:dc:a5:43:df:be:01:71:41:52:18:37:78:
         23:e1:45:23:c8:31:7c:e6:04:33:b6:99:f6:d6:84:6a:08:63:
         b0:66:33:e3:2a:a4:3f:5d
-----BEGIN CERTIFICATE-----
MIIGXTCCBEWgAwIBAgICEAAwDQYJKoZIhvcNAQELBQAwajELMAkGA1UEBhMCVVMx
ETAPBgNVBAgMCE5ldyBZb3JrMREwDwYDVQQHDAhCcm9va2x5bjESMBAGA1UECgwJ
VGltYmVyLmlvMSEwHwYDVQQDDBhUaW1iZXIuaW8gVmVjdG9yIFRlc3QgQ0EwHhcN
MjAwOTAzMjE1NDEwWhcNMjEwOTAzMjE1NDEwWjB3MQswCQYDVQQGEwJVUzERMA8G
A1UECAwITmV3IFlvcmsxETAPBgNVBAcMCEJyb29rbHluMRIwEAYDVQQKDAlUaW1i
ZXIuaW8xLjAsBgNVBAMMJVRpbWJlci5pbyBWZWN0b3IgVGVzdCBJbnRlcm1lZGlh
dGUgQ0EwggIiMA0GCSqGSIb3DQEBAQUAA4ICDwAwggIKAoICAQC8yz1om/oo4UJ0
9qlJSQ/qL2OI4Mthsc/hcOqelojKssL3AN0Cue7v+22MnDpyo7JUbyhlOPc/q9jE
p6c6HsaGiTg6ZUDkzRtc3wkbKow6n72qQalybsdoOpORwfmqzxIJSvMNZvqMD53i
iScWaVgaT1qx2GcRuKWoiItvnghV0u7MgygNBDNyY8QSpiuggi4o/h8WEam3U1yd
Nv5P4ontVziUPTUAfnvM1JwcAzDED2E7SxAhnQeCkLXZuaBdoT8aMVU8ojYwZYS/
Jn8AiOMeD3Ge0NfjnJJAQX5vH9r3KoDk2O18FlYxkTzm7oWA/0oPAY+RJUo3AS6r
uYWpFmHMekTQTTbLhiuKdLIPxTUbbUXhegC61aKAComghyBnkQLyXLaZhxSxmB0M
rxlU+dfDJDigA/L8O/lSv4wji3T3x+uvAZxFZwzhKEiM2fiSrw4IfJt6R3J12WRw
geQcJv9hcCogE2qmAFHcXMtXLri1KUM/XMYBqFg0B1NZkl49kwSio04bUiGlbmiw
uvRSIvegZJE8gd7pR/VKuMzWwC2Shbt8FtRvVZIqM/Fm0PghhhwTOp6j7jJTf5qs
VOxKnm2QQ5ZdF/nzCTOizM1TSWcxVujZPyf5t5+BAN/5U3CXotNqnKAkAdUflnrH
xKvEvyAXQy5PFv80YgUYLki45qzsnQIDAQABo4H/MIH8MB0GA1UdDgQWBBRohq4X
AGA7Sq2UkTdJ4e084WhiYTCBpwYDVR0jBIGfMIGcgBQnjpsh8RbWN5174N4BtnIa
Q2mEe6FupGwwajELMAkGA1UEBhMCVVMxETAPBgNVBAgMCE5ldyBZb3JrMREwDwYD
VQQHDAhCcm9va2x5bjESMBAGA1UECgwJVGltYmVyLmlvMSEwHwYDVQQDDBhUaW1i
ZXIuaW8gVmVjdG9yIFRlc3QgQ0GCFC1NiAvemha69uLfnqvyNe+eb2wvMA8GA1Ud
EwEB/wQFMAMBAf8wCwYDVR0PBAQDAgGmMBMGA1UdJQQMMAoGCCsGAQUFBwMBMA0G
CSqGSIb3DQEBCwUAA4ICAQAG7LbWYV1t5aAXMUIOULniLLGwxsa/Bo9+4GADoH/h
WURfl0BkGVmNvEJXpUp5xV8PxZVgWJqsY0flvZmzEZCNYb2jH6HuHgVg/Mr333K7
iDQw8z7MMuh7I7Wtd0KN//0lctfO80YSmgK+E4QWphbiF2WTG6pZU6K+o0ieg5WN
zo72Rgt0IxMpQ/EOKQzUt8qhWv60e+q3wey+r5+TvI4MmSDNnCVSNksJzZaI0lbk
3b+zWgsmzRZ2Z4LlJM+JS3Eex+LE9Qmu0mIrMb66afAjV1rrQSVhGbd6l+4LkDg0
9bPVDa7GymbKZ5tGlJFusLPwnMEomzP+cWiKrX+ylGIBg8Ly/5n7E4eD1MT6CJe7
/QUew8Aej8UcbfDnF3BSCvV61t3fiT+yTJjWla+06JQ+2dNvwiaBPz++McLY29I8
0AOzMUYXvYtaV4oWsWXxNkvcpNyjRKzsHcNchwg14n0i/m4FA8fewEam29Dyli6t
O4D+3ZZlG9MhTLmwN5KYk2UAovdROEV9NxgwBpyxIHMruPjbmz4oUJI2xlob1tAU
hsRIjWx5yiBBb4PSW4bLh38BxkSFfGC5JcTHBLxGe9ebw7VbLot9szV69ACRq/3j
nR5FAAo6d2C/q1XcpUPfvgFxQVIYN3gj4UUjyDF85gQztpn21oRqCGOwZjPjKqQ/
XQ==
-----END CERTIFICATE-----
-----BEGIN CERTIFICATE-----
MIIGYjCCBEqgAwIBAgIULU2IC96aFrr24t+eq/I1755vbC8wDQYJKoZIhvcNAQEL
BQAwajELMAkGA1UEBhMCVVMxETAPBgNVBAgMCE5ldyBZb3JrMREwDwYDVQQHDAhC
cm9va2x5bjESMBAGA1UECgwJVGltYmVyLmlvMSEwHwYDVQQDDBhUaW1iZXIuaW8g
VmVjdG9yIFRlc3QgQ0EwHhcNMjAwOTAzMjE1NDA5WhcNNDgwMTE5MjE1NDA5WjBq
MQswCQYDVQQGEwJVUzERMA8GA1UECAwITmV3IFlvcmsxETAPBgNVBAcMCEJyb29r
bHluMRIwEAYDVQQKDAlUaW1iZXIuaW8xITAfBgNVBAMMGFRpbWJlci5pbyBWZWN0
b3IgVGVzdCBDQTCCAiIwDQYJKoZIhvcNAQEBBQADggIPADCCAgoCggIBALE3TS0u
1wPxNVg0CJn0KRqgGLzfDBRF/xQnwtzec5q3wElHQgEXOULb0q1g7Kskos7qFyg+
j8TJBRgMsE597/+i/mVT4OtCe/AAu0x0+jNpUy1N6W0p65qnn13Bx8wextI8AlZY
bBwAVMofOLBzQ287CtKhF6qP7x2LuKCjhx7ExZQtwcSmjL0jzZ3uRzh21pI8IP5F
ysIPdE0uD0jmhcOxpBG/cpbMjLIiDLOOmQQ9A4+V57tH9qEwJoCXy1Kt8icB3GG2
24e49tSspEju9Vr1b0dqxFPqSe5wv6tPBj0YnBkcCMLF2UhtUznOCRQPboLgs1OV
nGEFgQfsvLAy8usCVtnGxUEcTakKJ2aMLVnytFr+WsApz+sDCP1udXZr0G/LWL64
JC2e41klFBbnsMso5ateq7KTGB3bjLskT3uiRpzDhMeqVTS8Lwi/SO31EFjId5mK
zXpf/9qWZSTfUu0rM1HHLJ8FoSkC4RvT2rrDbou/nLEQbx/DIcr90v82zegvuWjb
z9OOxXSd/NagEQwgmbBH1I7sABBbjHKqZabyx99fpWSjVWsF4YxXdA7kUtSwubv8
sO6dMC1qTLst+6BcQogRoBOq2h7TWjBrnq68cpyyfXnpEYdPs19Xc7DUiMGcayfE
ACRCPjw3YpVGauAdxc5JB73w5vqYYB/OiGsfAgMBAAGjgf8wgfwwHQYDVR0OBBYE
FCeOmyHxFtY3nXvg3gG2chpDaYR7MIGnBgNVHSMEgZ8wgZyAFCeOmyHxFtY3nXvg
3gG2chpDaYR7oW6kbDBqMQswCQYDVQQGEwJVUzERMA8GA1UECAwITmV3IFlvcmsx
ETAPBgNVBAcMCEJyb29rbHluMRIwEAYDVQQKDAlUaW1iZXIuaW8xITAfBgNVBAMM
GFRpbWJlci5pbyBWZWN0b3IgVGVzdCBDQYIULU2IC96aFrr24t+eq/I1755vbC8w
DwYDVR0TAQH/BAUwAwEB/zALBgNVHQ8EBAMCAaYwEwYDVR0lBAwwCgYIKwYBBQUH
AwEwDQYJKoZIhvcNAQELBQADggIBADjv9tdb9MGk22JWHtJM1FEq6Trc5++CYpKf
J2Ia+W5aSTH1ryqieBGitgvIRM2uk3QjMmtL2q+7o8cqXe0473xWoVUX87JDN2SN
eFDwc4M9EHyJ26m7zJ4qxRHzn+1UPG//8DnI6MMK6SSkLgBjyufyX6U8BRDcmPpa
S/R2D8gZdwWTrDtWt011lj9D0mCOJevnM61kmnuqLTwiUe7EVYQMoZ6ugLR5gTT5
i0mWFnljmLIOhwy3IlSFz3uGHIYuWR6XiqP8iiyZT+AO/q85SvrcbujZaQzGrAq8
wyNzao5ptXPzXgirSE9piZ58/MiIgruImtmPh5LCFZbFOL6WIb98Gm6QL4Jn86Kn
1E2TIFSpkKOhb7zt227VNuuOMMHpEIFcNyPSKblrKjuNdWQnkub+5kM5/oIYQArv
TWQ4wnn1IDFZuY3K5APnTI8IQbaglL1TbS61p3WTt7z3jrhtukXp+hA4b8JSL+5h
8yb52Wli/+NSTTo+oyUEERvbJf0mJAejGnDt9nxV/OcAgFx7ud/NfI1BMfncz0Wa
fyV6rM4eiN7312pbUbyCP9ivTCFdkBPZZHaPa/lPe8hDY4K3MkpP8BDHzB2gcuVX
d5fIiNX9tZVNWcl0m1Zw6/Uz9AvhRfCJWktGDNaNOlKRDfDkRGhkM8e+YEpEiCqX
/60ABXx7
-----END CERTIFICATE-----
