Certificate:
    Data:
        Version: 1 (0x0)
        Serial Number: 4096 (0x1000)
        Signature Algorithm: sha256WithRSAEncryption
        Issuer: C=US, ST=New York, L=Brooklyn, O=Timber.io, CN=Timber.io Vector Test CA
        Validity
            Not Before: Sep  2 21:21:33 2020 GMT
            Not After : Sep  2 21:21:33 2021 GMT
        Subject: C=US, ST=New York, L=Brooklyn, O=Timber.io, CN=Timber.io Vector Test Intermediate CA
        Subject Public Key Info:
            Public Key Algorithm: rsaEncryption
                RSA Public-Key: (4096 bit)
                Modulus:
                    00:c0:8b:4f:ff:1b:f7:c6:9e:30:61:e5:89:d9:16:
                    67:bb:6d:37:b1:52:30:c0:64:09:c5:fb:de:b4:ba:
                    97:ec:8f:eb:bc:16:fc:33:0c:3c:63:ee:8f:05:be:
                    8b:6a:f6:d7:de:32:d5:37:74:bc:c1:da:bf:36:97:
                    f8:26:82:aa:07:04:ea:5e:b1:41:fd:2f:2d:7a:05:
                    9d:aa:fd:ab:a2:49:c2:d3:de:51:59:72:a0:b1:f0:
                    f2:55:6e:21:a1:8d:02:b4:ea:03:45:15:93:f8:be:
                    e5:63:59:f7:9f:62:6e:26:0d:5f:27:41:0d:08:ec:
                    d4:57:41:3b:93:a2:49:e9:1c:98:c7:80:18:63:29:
                    fd:87:bd:d7:59:dd:95:ca:88:14:5f:4c:73:60:01:
                    f9:13:85:49:22:fd:b7:f5:77:cf:ec:4b:1a:2b:c2:
                    e2:58:60:64:1b:76:42:19:f7:3a:84:cc:d0:42:d8:
                    52:77:70:59:6f:69:48:4c:21:ff:9a:fb:29:69:fe:
                    8f:2b:59:3e:65:7b:d5:66:26:bf:7d:a6:9f:fb:f6:
                    8f:0a:65:3d:a2:94:0d:b5:15:a3:74:19:69:77:d5:
                    37:42:a2:54:1e:6a:0b:e3:3f:5b:59:4e:df:3e:1d:
                    4c:bd:9d:12:2b:39:b3:9d:27:ff:cc:bd:d3:b2:4c:
                    83:83:d5:cc:0f:34:a7:88:80:2c:70:a9:7f:c9:41:
                    72:63:53:c5:a1:6f:51:ae:a5:74:b4:29:ac:77:82:
                    7d:fb:8f:8e:fe:df:db:a1:b1:e5:96:11:fe:c8:a8:
                    71:aa:35:c9:26:7e:08:fb:17:5f:5e:0d:bf:54:04:
                    72:7f:35:a8:8c:44:3a:e3:c4:0b:b8:72:30:87:42:
                    e6:8b:29:61:3a:ad:4d:60:92:90:6c:ab:53:e4:00:
                    d1:1e:51:20:ad:54:18:37:de:35:55:5a:ef:07:4e:
                    b0:81:53:97:1d:48:37:e8:f4:9f:94:9e:32:5b:e5:
                    57:7d:5b:b7:73:ba:e2:6d:e1:49:a7:ee:40:f7:74:
                    22:e3:7a:4f:73:d5:cf:20:b7:90:98:50:3c:e3:45:
                    dd:46:63:21:3d:98:52:dc:17:fe:b1:f2:b0:bb:65:
                    04:ea:0d:7f:d3:a9:0c:d1:89:52:c9:a3:09:e4:f1:
                    bd:9b:6a:ed:87:9c:25:ca:ae:5d:47:01:27:71:3b:
                    53:40:89:34:d3:83:53:81:c1:00:8d:13:aa:0f:ba:
                    59:00:3c:4c:fa:29:5d:e5:00:c4:be:18:c9:de:2e:
                    a9:ff:c3:3c:12:51:55:2a:3c:b3:43:9c:a2:e8:90:
                    58:d5:6a:c0:61:b0:62:73:1d:f1:92:22:d8:e1:43:
                    a6:c0:93
                Exponent: 65537 (0x10001)
    Signature Algorithm: sha256WithRSAEncryption
         77:90:ce:b4:01:39:c3:73:71:d0:3f:5b:ca:ff:a7:e3:34:c6:
         0f:a8:bb:11:bb:e7:49:69:5f:98:59:d0:8d:02:ef:65:cc:db:
         10:15:e3:14:87:8a:5c:1c:63:c2:4b:0f:37:f1:90:9b:84:33:
         0e:71:46:02:47:c5:ea:94:d4:da:fd:61:a8:12:b8:bb:9d:8c:
         5a:2a:4d:f6:9c:9e:c5:74:de:63:6b:63:f3:e9:18:5f:63:5f:
         f2:52:fd:3e:da:76:b0:cd:04:73:64:51:62:01:a8:48:7e:11:
         48:f3:bd:c5:cc:c3:a3:e5:e2:a1:af:b1:11:a5:79:40:32:6a:
         d4:36:67:14:cd:d1:06:52:e7:27:f0:92:50:39:cc:ab:d8:2c:
         4f:cd:1b:90:84:b2:b1:3d:1d:c5:49:65:10:5c:8b:3a:29:6a:
         35:59:99:29:19:37:63:8f:1a:a7:ba:0d:c7:df:0a:e8:b2:e5:
         97:2e:f4:ff:31:f8:b7:a4:a7:79:ba:b4:89:a4:f8:ea:c3:a4:
         2a:f9:0e:1a:3e:2a:c7:4b:79:b9:68:81:d4:02:bb:3b:8d:f2:
         dc:a7:25:20:2a:ec:28:96:8a:d7:7f:47:c1:d3:d9:2f:62:74:
         a9:d2:5b:e5:62:1d:bb:31:d3:a7:18:97:0e:c2:a7:cc:45:61:
         79:8d:f4:70:65:16:fe:52:56:16:6d:e9:c4:95:13:74:ba:f0:
         18:fe:56:b2:05:50:f2:ee:f9:87:87:dc:5d:70:24:33:c8:e0:
         93:7d:6e:36:99:da:6f:9c:f0:05:6b:9e:19:f1:6c:48:1a:bf:
         9f:a1:d9:65:4c:57:d6:fe:e1:f2:8d:d3:e7:d7:35:67:6b:49:
         25:7b:bb:ef:3d:5f:f6:22:d1:7e:c1:a1:6a:49:aa:a6:5d:d5:
         0c:3a:42:2d:57:77:f0:93:ab:34:12:9b:9b:fe:96:9c:f1:20:
         0e:34:5d:e1:cc:07:ae:7b:bb:ef:09:5c:d8:f2:b4:3a:f1:10:
         51:be:55:25:4e:63:01:44:e3:f5:af:f9:ed:df:3b:ea:ae:28:
         19:72:2c:39:ef:75:3e:d3:90:ce:29:a1:51:3f:31:7f:fe:05:
         84:5f:7f:1a:62:02:05:6d:c2:8a:68:e8:5b:2e:8e:39:80:34:
         65:73:4e:dc:75:9d:8f:ef:5a:24:a8:65:99:3d:18:93:29:2b:
         a1:65:25:62:fe:1f:8d:1e:29:63:5a:43:f7:91:ab:b5:e7:aa:
         19:e8:4a:ea:ad:a0:0b:00:b3:a7:6d:1e:2d:aa:c0:60:ee:bd:
         f7:63:f1:0a:cd:f2:54:e5:b9:79:6a:68:76:6d:fe:d5:a4:70:
         7a:20:a3:f9:b0:d1:c1:92
-----BEGIN CERTIFICATE-----
MIIFVjCCAz4CAhAAMA0GCSqGSIb3DQEBCwUAMGoxCzAJBgNVBAYTAlVTMREwDwYD
VQQIDAhOZXcgWW9yazERMA8GA1UEBwwIQnJvb2tseW4xEjAQBgNVBAoMCVRpbWJl
ci5pbzEhMB8GA1UEAwwYVGltYmVyLmlvIFZlY3RvciBUZXN0IENBMB4XDTIwMDkw
MjIxMjEzM1oXDTIxMDkwMjIxMjEzM1owdzELMAkGA1UEBhMCVVMxETAPBgNVBAgM
CE5ldyBZb3JrMREwDwYDVQQHDAhCcm9va2x5bjESMBAGA1UECgwJVGltYmVyLmlv
MS4wLAYDVQQDDCVUaW1iZXIuaW8gVmVjdG9yIFRlc3QgSW50ZXJtZWRpYXRlIENB
MIICIjANBgkqhkiG9w0BAQEFAAOCAg8AMIICCgKCAgEAwItP/xv3xp4wYeWJ2RZn
u203sVIwwGQJxfvetLqX7I/rvBb8Mww8Y+6PBb6LavbX3jLVN3S8wdq/Npf4JoKq
BwTqXrFB/S8tegWdqv2roknC095RWXKgsfDyVW4hoY0CtOoDRRWT+L7lY1n3n2Ju
Jg1fJ0ENCOzUV0E7k6JJ6RyYx4AYYyn9h73XWd2VyogUX0xzYAH5E4VJIv239XfP
7EsaK8LiWGBkG3ZCGfc6hMzQQthSd3BZb2lITCH/mvspaf6PK1k+ZXvVZia/faaf
+/aPCmU9opQNtRWjdBlpd9U3QqJUHmoL4z9bWU7fPh1MvZ0SKzmznSf/zL3TskyD
g9XMDzSniIAscKl/yUFyY1PFoW9RrqV0tCmsd4J9+4+O/t/bobHllhH+yKhxqjXJ
Jn4I+xdfXg2/VARyfzWojEQ648QLuHIwh0LmiylhOq1NYJKQbKtT5ADRHlEgrVQY
N941VVrvB06wgVOXHUg36PSflJ4yW+VXfVu3c7ribeFJp+5A93Qi43pPc9XPILeQ
mFA840XdRmMhPZhS3Bf+sfKwu2UE6g1/06kM0YlSyaMJ5PG9m2rth5wlyq5dRwEn
cTtTQIk004NTgcEAjROqD7pZADxM+ild5QDEvhjJ3i6p/8M8ElFVKjyzQ5yi6JBY
1WrAYbBicx3xkiLY4UOmwJMCAwEAATANBgkqhkiG9w0BAQsFAAOCAgEAd5DOtAE5
w3Nx0D9byv+n4zTGD6i7EbvnSWlfmFnQjQLvZczbEBXjFIeKXBxjwksPN/GQm4Qz
DnFGAkfF6pTU2v1hqBK4u52MWipN9pyexXTeY2tj8+kYX2Nf8lL9Ptp2sM0Ec2RR
YgGoSH4RSPO9xczDo+Xioa+xEaV5QDJq1DZnFM3RBlLnJ/CSUDnMq9gsT80bkISy
sT0dxUllEFyLOilqNVmZKRk3Y48ap7oNx98K6LLlly70/zH4t6Snebq0iaT46sOk
KvkOGj4qx0t5uWiB1AK7O43y3KclICrsKJaK139HwdPZL2J0qdJb5WIduzHTpxiX
DsKnzEVheY30cGUW/lJWFm3pxJUTdLrwGP5WsgVQ8u75h4fcXXAkM8jgk31uNpna
b5zwBWueGfFsSBq/n6HZZUxX1v7h8o3T59c1Z2tJJXu77z1f9iLRfsGhakmqpl3V
DDpCLVd38JOrNBKbm/6WnPEgDjRd4cwHrnu77wlc2PK0OvEQUb5VJU5jAUTj9a/5
7d876q4oGXIsOe91PtOQzimhUT8xf/4FhF9/GmICBW3CimjoWy6OOYA0ZXNO3HWd
j+9aJKhlmT0YkykroWUlYv4fjR4pY1pD95GrteeqGehK6q2gCwCzp20eLarAYO69
92PxCs3yVOW5eWpodm3+1aRweiCj+bDRwZI=
-----END CERTIFICATE-----
