Certificate:
    Data:
        Version: 1 (0x0)
        Serial Number: 4096 (0x1000)
        Signature Algorithm: sha256WithRSAEncryption
        Issuer: C=US, ST=New York, L=Brooklyn, O=Timber.io, CN=Timber.io Vector Test CA
        Validity
            Not Before: Sep  2 21:38:01 2020 GMT
            Not After : Sep  2 21:38:01 2021 GMT
        Subject: C=US, ST=New York, L=Brooklyn, O=Timber.io, CN=Timber.io Vector Test Intermediate CA
        Subject Public Key Info:
            Public Key Algorithm: rsaEncryption
                RSA Public-Key: (4096 bit)
                Modulus:
                    00:b7:a7:c7:49:59:32:19:11:b3:df:11:76:9c:f1:
                    c9:0d:c8:58:53:6d:a1:16:4c:08:3f:f5:f6:ba:d3:
                    6c:45:1b:5e:cd:0a:73:ae:51:58:6b:ce:bb:d6:7c:
                    84:49:8c:9b:a1:70:c5:b9:d5:df:5b:59:2c:41:d7:
                    78:11:60:76:c5:bf:94:0e:9b:db:6c:3f:f9:ed:0a:
                    63:4e:c6:aa:a9:bf:d6:8f:b0:5f:5b:8e:b4:e1:2d:
                    ec:c6:bc:c3:a5:ec:b6:4c:a1:ed:97:90:29:92:71:
                    0e:1e:88:6a:27:d3:10:45:fa:a1:c2:50:05:05:5f:
                    fa:27:59:b9:25:5b:7a:b2:61:b8:f9:87:a7:ad:36:
                    cd:14:de:b8:39:e0:d8:84:d5:ff:0b:6e:f8:0b:d6:
                    52:86:8c:dd:12:bd:a4:04:7f:c1:4a:92:50:ad:a9:
                    fc:28:5c:02:be:60:bf:23:c8:49:9d:1f:28:3a:ef:
                    8b:75:57:6a:62:95:5e:9a:9f:a7:ba:25:10:86:f0:
                    a7:04:05:7f:44:90:67:09:9f:d9:a9:4e:c2:2b:12:
                    0a:0e:49:8d:e1:6f:dc:a9:29:cb:a3:40:fd:ba:a2:
                    1b:4d:b2:4e:9a:3e:65:3f:dc:49:fc:3a:62:61:91:
                    27:24:d1:1e:42:2d:97:b3:1d:78:57:f2:38:c3:11:
                    c0:05:63:0b:9b:a8:c2:51:36:0b:0f:d7:fd:8e:d3:
                    73:30:36:6c:c2:34:4b:5c:43:35:fb:5c:71:b6:b8:
                    f4:33:4f:19:fb:0e:4a:d6:79:fe:a8:cf:70:6f:47:
                    a4:eb:10:aa:64:cb:15:1a:6f:41:ba:50:1f:d0:15:
                    a3:37:e6:e2:85:fc:0c:db:5f:2d:cf:a1:15:0d:f2:
                    11:cd:e5:d1:7a:d3:9f:99:3c:e1:98:55:21:54:8f:
                    be:b5:06:e3:84:7a:98:24:4f:4c:28:7c:4c:18:98:
                    f2:64:09:1e:32:b4:de:93:d2:bc:a8:0e:aa:eb:28:
                    97:4e:2f:ed:7b:a9:0b:f3:ef:a8:8e:a3:f7:27:93:
                    e7:6f:0c:a7:4f:b5:0e:9b:9a:55:7f:07:51:c1:e5:
                    12:55:87:0b:1d:2e:cf:b4:11:ff:ac:83:f7:25:00:
                    c2:1a:86:55:37:c9:e6:f7:21:56:15:84:c8:82:bf:
                    ec:47:fc:63:25:59:27:9f:94:62:11:d9:ec:7f:01:
                    e2:fb:e2:91:95:ed:7f:ad:62:82:29:8d:2c:e9:66:
                    5d:3d:4f:b1:00:58:73:eb:d3:64:4f:b1:9d:f2:04:
                    71:ef:fe:b1:51:50:c4:b7:e5:43:f3:d5:25:99:67:
                    45:c7:d2:58:10:6e:c9:ab:3d:5a:87:2d:1d:10:c4:
                    72:39:d9
                Exponent: 65537 (0x10001)
    Signature Algorithm: sha256WithRSAEncryption
         9f:3c:be:c6:98:45:12:76:d5:05:2a:39:70:5a:97:f2:b5:15:
         a1:c3:fb:41:d6:db:63:88:42:d8:17:55:02:53:4c:64:d4:16:
         89:ab:2c:4a:a8:87:51:d9:d2:8a:f8:95:42:10:b8:5b:f2:d0:
         f4:88:d1:e0:75:5c:37:27:45:0d:3f:ab:c9:ad:7f:28:85:99:
         6a:c0:89:fb:94:1f:71:5e:5a:93:b2:a6:7a:9e:02:37:78:b1:
         9d:42:ac:00:da:01:90:f1:fa:ab:a5:04:b7:f3:36:cc:47:99:
         1d:c2:26:ee:b7:fb:69:7d:4c:82:76:62:b1:2c:7a:21:90:15:
         19:2c:a4:dd:e6:29:41:9f:4e:7c:98:85:0b:53:63:4c:89:9a:
         f8:6a:ca:8a:5e:ac:48:bb:87:b9:f8:8c:ba:80:40:ba:ce:4b:
         5b:e3:cc:7e:66:50:da:d3:63:38:df:1b:b0:5f:49:13:41:24:
         b7:d2:47:07:26:d3:8e:a6:df:b8:04:16:37:f7:4d:c2:a4:09:
         9a:ab:24:c4:d5:2f:76:78:37:70:7b:3f:ee:15:9e:d2:6b:4d:
         b1:c0:87:8a:43:75:24:c9:98:43:45:c7:fd:b8:cc:83:a8:05:
         08:87:14:1d:93:78:0b:99:6b:e1:ff:c2:c0:a7:8f:34:b3:e1:
         9d:a3:6b:78:50:b9:b9:44:19:0a:84:a0:aa:25:17:bf:c6:44:
         1b:a6:63:be:1b:49:14:94:60:1c:fc:fb:a0:df:48:bb:c5:cb:
         44:42:a9:8a:c4:3d:b4:d9:2e:ae:65:a6:c1:cb:85:2b:9e:2e:
         7c:cc:71:cb:7c:fd:ec:98:10:f1:8c:94:6d:9c:26:e2:7f:a2:
         e8:9b:c8:4a:2b:97:2c:02:4e:63:e0:c1:e4:c4:7f:cb:40:68:
         d5:68:87:18:d6:1a:9a:ff:98:35:b9:b1:14:b3:20:81:6d:b7:
         7a:48:64:eb:52:79:62:0b:62:4b:bd:ac:64:95:e7:22:26:36:
         aa:eb:d9:d4:73:ec:53:c3:9b:0b:12:5c:28:c2:e7:ed:aa:bb:
         86:16:07:33:eb:94:16:aa:62:eb:7d:f8:49:d2:44:2a:6e:be:
         20:7e:8c:73:33:31:39:6d:37:ff:66:10:37:d6:a8:44:2a:1a:
         cb:3d:99:ee:41:b7:bc:d7:b9:aa:52:f8:79:a0:26:2d:f3:fc:
         37:58:37:f2:42:ad:db:e0:bb:e3:ca:bb:bc:e4:7d:7a:a9:b7:
         cc:dd:58:d6:03:fb:b7:23:8b:34:54:d5:86:15:cd:bd:6a:50:
         8a:5b:47:99:b6:23:42:47:62:d3:91:35:10:08:6c:51:e6:98:
         bc:f9:e1:95:ae:e9:c3:f2
-----BEGIN CERTIFICATE-----
MIIFVjCCAz4CAhAAMA0GCSqGSIb3DQEBCwUAMGoxCzAJBgNVBAYTAlVTMREwDwYD
VQQIDAhOZXcgWW9yazERMA8GA1UEBwwIQnJvb2tseW4xEjAQBgNVBAoMCVRpbWJl
ci5pbzEhMB8GA1UEAwwYVGltYmVyLmlvIFZlY3RvciBUZXN0IENBMB4XDTIwMDkw
MjIxMzgwMVoXDTIxMDkwMjIxMzgwMVowdzELMAkGA1UEBhMCVVMxETAPBgNVBAgM
CE5ldyBZb3JrMREwDwYDVQQHDAhCcm9va2x5bjESMBAGA1UECgwJVGltYmVyLmlv
MS4wLAYDVQQDDCVUaW1iZXIuaW8gVmVjdG9yIFRlc3QgSW50ZXJtZWRpYXRlIENB
MIICIjANBgkqhkiG9w0BAQEFAAOCAg8AMIICCgKCAgEAt6fHSVkyGRGz3xF2nPHJ
DchYU22hFkwIP/X2utNsRRtezQpzrlFYa8671nyESYyboXDFudXfW1ksQdd4EWB2
xb+UDpvbbD/57QpjTsaqqb/Wj7BfW4604S3sxrzDpey2TKHtl5ApknEOHohqJ9MQ
RfqhwlAFBV/6J1m5JVt6smG4+YenrTbNFN64OeDYhNX/C274C9ZShozdEr2kBH/B
SpJQran8KFwCvmC/I8hJnR8oOu+LdVdqYpVemp+nuiUQhvCnBAV/RJBnCZ/ZqU7C
KxIKDkmN4W/cqSnLo0D9uqIbTbJOmj5lP9xJ/DpiYZEnJNEeQi2Xsx14V/I4wxHA
BWMLm6jCUTYLD9f9jtNzMDZswjRLXEM1+1xxtrj0M08Z+w5K1nn+qM9wb0ek6xCq
ZMsVGm9BulAf0BWjN+bihfwM218tz6EVDfIRzeXRetOfmTzhmFUhVI++tQbjhHqY
JE9MKHxMGJjyZAkeMrTek9K8qA6q6yiXTi/te6kL8++ojqP3J5PnbwynT7UOm5pV
fwdRweUSVYcLHS7PtBH/rIP3JQDCGoZVN8nm9yFWFYTIgr/sR/xjJVknn5RiEdns
fwHi++KRle1/rWKCKY0s6WZdPU+xAFhz69NkT7Gd8gRx7/6xUVDEt+VD89UlmWdF
x9JYEG7Jqz1ahy0dEMRyOdkCAwEAATANBgkqhkiG9w0BAQsFAAOCAgEAnzy+xphF
EnbVBSo5cFqX8rUVocP7QdbbY4hC2BdVAlNMZNQWiassSqiHUdnSiviVQhC4W/LQ
9IjR4HVcNydFDT+rya1/KIWZasCJ+5QfcV5ak7Kmep4CN3ixnUKsANoBkPH6q6UE
t/M2zEeZHcIm7rf7aX1MgnZisSx6IZAVGSyk3eYpQZ9OfJiFC1NjTIma+GrKil6s
SLuHufiMuoBAus5LW+PMfmZQ2tNjON8bsF9JE0Ekt9JHBybTjqbfuAQWN/dNwqQJ
mqskxNUvdng3cHs/7hWe0mtNscCHikN1JMmYQ0XH/bjMg6gFCIcUHZN4C5lr4f/C
wKePNLPhnaNreFC5uUQZCoSgqiUXv8ZEG6ZjvhtJFJRgHPz7oN9Iu8XLREKpisQ9
tNkurmWmwcuFK54ufMxxy3z97JgQ8YyUbZwm4n+i6JvISiuXLAJOY+DB5MR/y0Bo
1WiHGNYamv+YNbmxFLMggW23ekhk61J5YgtiS72sZJXnIiY2quvZ1HPsU8ObCxJc
KMLn7aq7hhYHM+uUFqpi6334SdJEKm6+IH6MczMxOW03/2YQN9aoRCoayz2Z7kG3
vNe5qlL4eaAmLfP8N1g38kKt2+C748q7vOR9eqm3zN1Y1gP7tyOLNFTVhhXNvWpQ
iltHmbYjQkdi05E1EAhsUeaYvPnhla7pw/I=
-----END CERTIFICATE-----
