Certificate:
    Data:
        Version: 3 (0x2)
        Serial Number: 4096 (0x1000)
        Signature Algorithm: sha256WithRSAEncryption
        Issuer: C=US, ST=New York, L=Brooklyn, O=Timber.io, CN=Timber.io Vector Test CA
        Validity
            Not Before: Sep  3 21:48:49 2020 GMT
            Not After : Sep  3 21:48:49 2021 GMT
        Subject: C=US, ST=New York, L=Brooklyn, O=Timber.io, CN=Timber.io Vector Test Intermediate CA
        Subject Public Key Info:
            Public Key Algorithm: rsaEncryption
                RSA Public-Key: (4096 bit)
                Modulus:
                    00:bb:25:94:01:f8:17:1d:92:f1:19:60:91:b6:82:
                    f7:52:be:bd:26:dd:83:2a:99:20:95:3c:98:64:92:
                    50:c2:7f:2b:9f:c1:20:63:34:70:e9:70:aa:ec:13:
                    56:b0:ed:91:f2:ad:e6:1c:95:89:7c:00:a6:14:b6:
                    2e:62:31:12:76:d1:37:e0:7b:1c:db:94:b2:a2:d6:
                    26:e2:fc:96:27:59:ec:9e:cc:9b:dd:0d:62:17:c9:
                    cb:f4:ab:f1:ec:3d:6b:87:5a:9a:3e:dc:f5:ec:8b:
                    0b:c9:cf:0f:cf:60:0f:52:e2:3d:ef:65:77:5b:f7:
                    5f:27:fa:ec:3b:f1:f6:ed:c2:c6:ff:45:cc:97:57:
                    9e:8b:37:d5:14:b4:a8:4f:65:93:d8:dd:e4:d8:97:
                    51:42:5d:83:b7:bf:7a:f6:fa:ad:5a:58:03:7d:08:
                    79:3a:d7:71:89:03:c7:58:79:3a:61:6d:b8:31:29:
                    3a:f1:ac:f3:0e:7e:2c:d0:e8:b1:9a:7c:97:b9:8d:
                    db:dc:0b:4a:a6:c6:9e:b5:68:f0:0d:c1:df:bc:df:
                    46:f0:00:53:a9:a6:d8:65:5a:12:a1:6a:45:f7:7f:
                    1a:31:44:01:7d:3e:26:b2:38:32:e3:78:f5:59:b0:
                    89:bf:4b:49:85:fb:6d:33:cf:14:b8:53:a8:85:2c:
                    0c:ac:9f:bd:c6:b3:00:4b:2c:97:1d:5b:11:11:44:
                    24:6b:3b:2e:43:4b:00:41:56:96:41:33:b5:03:de:
                    c3:46:9d:5c:49:ed:00:68:86:c8:13:bb:f2:0d:99:
                    81:3f:17:c1:6a:f3:31:26:d5:50:95:1a:0d:1a:98:
                    a1:1f:3e:7a:a3:9f:ee:64:ba:d9:f6:b6:c6:e3:0e:
                    a6:28:10:58:10:ba:3a:53:52:73:7c:fa:15:00:73:
                    07:ea:47:13:f6:b9:48:61:da:37:95:af:6a:ca:f8:
                    50:72:da:33:1a:5a:ca:b5:4c:68:5f:19:ac:be:e6:
                    c1:1c:dd:2d:c3:65:08:5b:f3:f5:1d:01:ff:f8:c8:
                    6b:cf:d1:c9:4e:82:c1:bf:44:df:59:cc:54:8e:ca:
                    33:dd:98:ef:ed:9c:99:38:b1:40:d2:29:09:22:0c:
                    51:c1:6d:63:c8:b6:88:7e:cc:d6:8c:19:f4:68:b0:
                    5b:53:9c:ed:e4:69:76:8c:05:15:d6:a9:4c:39:12:
                    d4:d2:95:f8:66:8f:be:50:85:ee:c0:21:65:47:53:
                    bb:53:62:6a:ae:4f:96:a4:39:a9:4f:21:45:e1:44:
                    ed:3f:c1:6c:46:0c:c6:96:52:11:2d:58:ba:55:ca:
                    f4:f5:db:41:99:6c:c3:e4:57:bc:09:25:db:82:42:
                    fe:ea:f3
                Exponent: 65537 (0x10001)
        X509v3 extensions:
            X509v3 Subject Key Identifier: 
                76:F8:5A:32:9F:D7:D0:1E:A9:28:E2:34:F9:A2:60:F0:EA:FA:99:5E
            X509v3 Authority Key Identifier: 
                keyid:58:88:01:FD:0F:A3:AB:EB:53:08:2A:BA:E9:62:FF:24:51:5E:37:54
                DirName:/C=US/ST=New York/L=Brooklyn/O=Timber.io/CN=Timber.io Vector Test CA
                serial:75:80:DA:D6:F0:3B:EF:9C:D9:D6:55:A9:CB:67:13:CB:12:89:73:7C

            X509v3 Basic Constraints: critical
                CA:TRUE
            X509v3 Key Usage: 
                Digital Signature, Key Encipherment, Certificate Sign, CRL Sign
            X509v3 Extended Key Usage: 
                TLS Web Server Authentication
    Signature Algorithm: sha256WithRSAEncryption
         6b:68:df:7b:c7:c7:7c:ec:af:07:76:2c:a3:3b:71:3d:8a:c9:
         66:74:e0:d4:0d:ad:36:d7:f7:ba:62:19:bd:86:ae:82:76:ac:
         f8:af:30:5e:96:1c:1a:08:95:62:e4:61:fb:7d:1d:79:17:80:
         a7:a8:e1:1f:82:71:08:d2:73:33:dc:d5:0d:c5:68:46:ff:86:
         2d:b0:bd:c5:44:08:14:59:92:0a:60:81:29:85:ad:68:fd:e0:
         f7:8f:3c:ca:cc:68:69:04:6b:c2:fd:c8:3a:83:ca:21:d1:47:
         e8:71:ab:0f:32:b4:80:87:91:9f:3f:f5:32:80:e6:c5:37:00:
         14:a7:e6:60:f1:1e:05:22:87:b8:cf:f8:b2:a0:85:3f:84:3d:
         6b:23:d2:d2:e3:74:a4:be:80:48:33:a8:3f:1d:dd:f0:2b:94:
         94:2f:1e:b6:c8:e8:7d:f4:df:38:2e:53:e2:27:6e:1b:a2:a7:
         26:b3:f7:41:78:66:97:b4:4a:7c:8c:c0:d0:77:91:ab:d0:56:
         fa:b9:d9:56:fa:e6:f0:1e:87:0e:4a:08:2d:26:79:dc:b9:49:
         b6:5e:f9:18:4d:6a:c4:6a:eb:13:e5:bb:2a:eb:df:76:2b:a9:
         25:cc:33:c9:bc:30:a3:18:69:8f:bc:b1:71:4b:11:9d:7c:83:
         af:23:14:ac:a0:37:99:c9:53:f1:7a:da:e7:23:34:a0:16:37:
         99:81:4c:c3:b6:07:b2:0f:04:2f:df:4d:c4:d3:d7:d4:ca:71:
         a2:4f:86:7b:07:d7:70:21:02:36:8b:32:9c:05:54:64:ce:e0:
         d7:5d:0c:91:e3:c5:55:cb:db:3e:33:75:04:2c:68:34:06:98:
         af:59:01:39:f3:16:d4:fd:84:73:04:5f:90:1f:e6:65:8b:85:
         56:39:fb:01:35:a7:cf:7b:84:c9:07:e8:d4:d0:25:4e:15:2c:
         68:37:2c:31:be:21:32:8f:c9:6d:19:cc:77:92:30:b5:07:2b:
         41:64:ea:36:1c:df:5c:4a:36:c7:38:7c:ac:e7:af:5f:20:9a:
         ab:d0:b0:af:2a:e5:62:08:b5:c5:f7:ca:5d:d6:2a:88:b2:f8:
         a0:59:5a:fc:42:17:68:a8:de:88:93:3c:79:d5:74:fd:c8:7d:
         44:30:f7:ef:e6:f9:0c:56:ec:b0:5c:c4:d4:1d:54:0b:2a:87:
         08:ff:30:f6:56:bf:fe:50:84:ac:86:a7:56:dd:96:6c:5c:64:
         0f:df:c3:2b:ad:46:66:6e:d5:4f:de:e1:09:56:25:fe:d1:3b:
         15:82:19:04:5e:3f:75:5b:15:2f:5d:78:e7:f3:a9:f9:00:d7:
         16:28:ff:eb:61:9c:a3:61
-----BEGIN CERTIFICATE-----
MIIGXTCCBEWgAwIBAgICEAAwDQYJKoZIhvcNAQELBQAwajELMAkGA1UEBhMCVVMx
ETAPBgNVBAgMCE5ldyBZb3JrMREwDwYDVQQHDAhCcm9va2x5bjESMBAGA1UECgwJ
VGltYmVyLmlvMSEwHwYDVQQDDBhUaW1iZXIuaW8gVmVjdG9yIFRlc3QgQ0EwHhcN
MjAwOTAzMjE0ODQ5WhcNMjEwOTAzMjE0ODQ5WjB3MQswCQYDVQQGEwJVUzERMA8G
A1UECAwITmV3IFlvcmsxETAPBgNVBAcMCEJyb29rbHluMRIwEAYDVQQKDAlUaW1i
ZXIuaW8xLjAsBgNVBAMMJVRpbWJlci5pbyBWZWN0b3IgVGVzdCBJbnRlcm1lZGlh
dGUgQ0EwggIiMA0GCSqGSIb3DQEBAQUAA4ICDwAwggIKAoICAQC7JZQB+BcdkvEZ
YJG2gvdSvr0m3YMqmSCVPJhkklDCfyufwSBjNHDpcKrsE1aw7ZHyreYclYl8AKYU
ti5iMRJ20TfgexzblLKi1ibi/JYnWeyezJvdDWIXycv0q/HsPWuHWpo+3PXsiwvJ
zw/PYA9S4j3vZXdb918n+uw78fbtwsb/RcyXV56LN9UUtKhPZZPY3eTYl1FCXYO3
v3r2+q1aWAN9CHk613GJA8dYeTphbbgxKTrxrPMOfizQ6LGafJe5jdvcC0qmxp61
aPANwd+830bwAFOppthlWhKhakX3fxoxRAF9PiayODLjePVZsIm/S0mF+20zzxS4
U6iFLAysn73GswBLLJcdWxERRCRrOy5DSwBBVpZBM7UD3sNGnVxJ7QBohsgTu/IN
mYE/F8Fq8zEm1VCVGg0amKEfPnqjn+5kutn2tsbjDqYoEFgQujpTUnN8+hUAcwfq
RxP2uUhh2jeVr2rK+FBy2jMaWsq1TGhfGay+5sEc3S3DZQhb8/UdAf/4yGvP0clO
gsG/RN9ZzFSOyjPdmO/tnJk4sUDSKQkiDFHBbWPItoh+zNaMGfRosFtTnO3kaXaM
BRXWqUw5EtTSlfhmj75Qhe7AIWVHU7tTYmquT5akOalPIUXhRO0/wWxGDMaWUhEt
WLpVyvT120GZbMPkV7wJJduCQv7q8wIDAQABo4H/MIH8MB0GA1UdDgQWBBR2+Foy
n9fQHqko4jT5omDw6vqZXjCBpwYDVR0jBIGfMIGcgBRYiAH9D6Or61MIKrrpYv8k
UV43VKFupGwwajELMAkGA1UEBhMCVVMxETAPBgNVBAgMCE5ldyBZb3JrMREwDwYD
VQQHDAhCcm9va2x5bjESMBAGA1UECgwJVGltYmVyLmlvMSEwHwYDVQQDDBhUaW1i
ZXIuaW8gVmVjdG9yIFRlc3QgQ0GCFHWA2tbwO++c2dZVqctnE8sSiXN8MA8GA1Ud
EwEB/wQFMAMBAf8wCwYDVR0PBAQDAgGmMBMGA1UdJQQMMAoGCCsGAQUFBwMBMA0G
CSqGSIb3DQEBCwUAA4ICAQBraN97x8d87K8HdiyjO3E9islmdODUDa021/e6Yhm9
hq6Cdqz4rzBelhwaCJVi5GH7fR15F4CnqOEfgnEI0nMz3NUNxWhG/4YtsL3FRAgU
WZIKYIEpha1o/eD3jzzKzGhpBGvC/cg6g8oh0UfocasPMrSAh5GfP/UygObFNwAU
p+Zg8R4FIoe4z/iyoIU/hD1rI9LS43SkvoBIM6g/Hd3wK5SULx62yOh99N84LlPi
J24boqcms/dBeGaXtEp8jMDQd5Gr0Fb6udlW+ubwHocOSggtJnncuUm2XvkYTWrE
ausT5bsq6992K6klzDPJvDCjGGmPvLFxSxGdfIOvIxSsoDeZyVPxetrnIzSgFjeZ
gUzDtgeyDwQv303E09fUynGiT4Z7B9dwIQI2izKcBVRkzuDXXQyR48VVy9s+M3UE
LGg0BpivWQE58xbU/YRzBF+QH+Zli4VWOfsBNafPe4TJB+jU0CVOFSxoNywxviEy
j8ltGcx3kjC1BytBZOo2HN9cSjbHOHys569fIJqr0LCvKuViCLXF98pd1iqIsvig
WVr8QhdoqN6Ikzx51XT9yH1EMPfv5vkMVuywXMTUHVQLKocI/zD2Vr/+UISshqdW
3ZZsXGQP38MrrUZmbtVP3uEJViX+0TsVghkEXj91WxUvXXjn86n5ANcWKP/rYZyj
YQ==
-----END CERTIFICATE-----
